

Microchip MPLAB XC8 Assembler V2.31 build 20201012212115 
                                                                                               Fri Jun 04 10:42:04 2021

Microchip MPLAB XC8 C Compiler v2.31 (Free license) build 20201012212115 Og1 
     1                           	processor	16F887
     2                           	pagewidth 120
     3                           	opt	flic
     4                           	psect	strings,global,class=STRING,delta=2,noexec
     5                           	psect	stringtext,global,reloc=256,class=STRCODE,delta=2,noexec
     6                           	psect	cinit,global,class=CODE,merge=1,delta=2
     7                           	psect	bssCOMMON,global,class=COMMON,space=1,delta=1,noexec
     8                           	psect	bssBANK0,global,class=BANK0,space=1,delta=1,noexec
     9                           	psect	cstackCOMMON,global,class=COMMON,space=1,delta=1,noexec
    10                           	psect	cstackBANK0,global,class=BANK0,space=1,delta=1,noexec
    11                           	psect	maintext,global,class=CODE,split=1,delta=2
    12                           	psect	text1,local,class=CODE,merge=1,delta=2
    13                           	psect	text2,local,class=CODE,merge=1,delta=2
    14                           	psect	text3,local,class=CODE,merge=1,delta=2,group=1
    15                           	psect	text4,local,class=CODE,merge=1,delta=2
    16                           	psect	text5,local,class=CODE,merge=1,delta=2
    17                           	psect	text6,local,class=CODE,merge=1,delta=2
    18                           	psect	text7,local,class=CODE,merge=1,delta=2
    19                           	psect	intentry,global,class=CODE,delta=2
    20                           	psect	text8,local,class=CODE,merge=1,delta=2
    21                           	psect	text9,local,class=CODE,merge=1,delta=2
    22                           	psect	config,global,abs,ovrld,class=CONFIG,space=4,delta=2,noexec
    23                           	dabs	1,0x7E,2
    24  0000                     
    25                           ; Version 2.20
    26                           ; Generated 12/02/2020 GMT
    27                           ; 
    28                           ; Copyright © 2020, Microchip Technology Inc. and its subsidiaries ("Microchip")
    29                           ; All rights reserved.
    30                           ; 
    31                           ; This software is developed by Microchip Technology Inc. and its subsidiaries ("Microch
      +                          ip").
    32                           ; 
    33                           ; Redistribution and use in source and binary forms, with or without modification, are
    34                           ; permitted provided that the following conditions are met:
    35                           ; 
    36                           ;     1. Redistributions of source code must retain the above copyright notice, this lis
      +                          t of
    37                           ;        conditions and the following disclaimer.
    38                           ; 
    39                           ;     2. Redistributions in binary form must reproduce the above copyright notice, this 
      +                          list
    40                           ;        of conditions and the following disclaimer in the documentation and/or other
    41                           ;        materials provided with the distribution.
    42                           ; 
    43                           ;     3. Microchip's name may not be used to endorse or promote products derived from th
      +                          is
    44                           ;        software without specific prior written permission.
    45                           ; 
    46                           ; THIS SOFTWARE IS PROVIDED BY MICROCHIP "AS IS" AND ANY EXPRESS OR IMPLIED WARRANTIES,
    47                           ; INCLUDING, BUT NOT LIMITED TO, THE IMPLIED WARRANTIES OF MERCHANTABILITY AND FITNESS F
      +                          OR
    48                           ; PURPOSE ARE DISCLAIMED.  IN NO EVENT SHALL MICROCHIP BE LIABLE FOR ANY DIRECT, INDIREC
      +                          T,
    49                           ; INCIDENTAL, SPECIAL, EXEMPLARY, OR CONSEQUENTIAL DAMAGES (INCLUDING BUT NOT LIMITED TO
    50                           ; PROCUREMENT OF SUBSTITUTE GOODS OR SERVICES; LOSS OF USE, DATA OR PROFITS; OR BUSINESS
    51                           ; INTERRUPTION) HOWSOEVER CAUSED AND ON ANY THEORY OF LIABILITY, WHETHER IN CONTRACT, ST
      +                          RICT
    52                           ; LIABILITY, OR TORT (INCLUDING NEGLIGENCE OR OTHERWISE) ARISING IN ANY WAY OUT OF THE U
      +                          SE OF
    53                           ; THIS SOFTWARE, EVEN IF ADVISED OF THE POSSIBILITY OF SUCH DAMAGE.
    54                           ; 
    55                           ; 
    56                           ; Code-generator required, PIC16F887 Definitions
    57                           ; 
    58                           ; SFR Addresses
    59  0000                     	;# 
    60  0001                     	;# 
    61  0002                     	;# 
    62  0003                     	;# 
    63  0004                     	;# 
    64  0005                     	;# 
    65  0006                     	;# 
    66  0007                     	;# 
    67  0008                     	;# 
    68  0009                     	;# 
    69  000A                     	;# 
    70  000B                     	;# 
    71  000C                     	;# 
    72  000D                     	;# 
    73  000E                     	;# 
    74  000E                     	;# 
    75  000F                     	;# 
    76  0010                     	;# 
    77  0011                     	;# 
    78  0012                     	;# 
    79  0013                     	;# 
    80  0014                     	;# 
    81  0015                     	;# 
    82  0015                     	;# 
    83  0016                     	;# 
    84  0017                     	;# 
    85  0018                     	;# 
    86  0019                     	;# 
    87  001A                     	;# 
    88  001B                     	;# 
    89  001B                     	;# 
    90  001C                     	;# 
    91  001D                     	;# 
    92  001E                     	;# 
    93  001F                     	;# 
    94  0081                     	;# 
    95  0085                     	;# 
    96  0086                     	;# 
    97  0087                     	;# 
    98  0088                     	;# 
    99  0089                     	;# 
   100  008C                     	;# 
   101  008D                     	;# 
   102  008E                     	;# 
   103  008F                     	;# 
   104  0090                     	;# 
   105  0091                     	;# 
   106  0092                     	;# 
   107  0093                     	;# 
   108  0093                     	;# 
   109  0093                     	;# 
   110  0094                     	;# 
   111  0095                     	;# 
   112  0096                     	;# 
   113  0097                     	;# 
   114  0098                     	;# 
   115  0099                     	;# 
   116  009A                     	;# 
   117  009B                     	;# 
   118  009C                     	;# 
   119  009D                     	;# 
   120  009E                     	;# 
   121  009F                     	;# 
   122  0105                     	;# 
   123  0107                     	;# 
   124  0108                     	;# 
   125  0109                     	;# 
   126  010C                     	;# 
   127  010C                     	;# 
   128  010D                     	;# 
   129  010E                     	;# 
   130  010F                     	;# 
   131  0185                     	;# 
   132  0187                     	;# 
   133  0188                     	;# 
   134  0189                     	;# 
   135  018C                     	;# 
   136  018D                     	;# 
   137  0000                     	;# 
   138  0001                     	;# 
   139  0002                     	;# 
   140  0003                     	;# 
   141  0004                     	;# 
   142  0005                     	;# 
   143  0006                     	;# 
   144  0007                     	;# 
   145  0008                     	;# 
   146  0009                     	;# 
   147  000A                     	;# 
   148  000B                     	;# 
   149  000C                     	;# 
   150  000D                     	;# 
   151  000E                     	;# 
   152  000E                     	;# 
   153  000F                     	;# 
   154  0010                     	;# 
   155  0011                     	;# 
   156  0012                     	;# 
   157  0013                     	;# 
   158  0014                     	;# 
   159  0015                     	;# 
   160  0015                     	;# 
   161  0016                     	;# 
   162  0017                     	;# 
   163  0018                     	;# 
   164  0019                     	;# 
   165  001A                     	;# 
   166  001B                     	;# 
   167  001B                     	;# 
   168  001C                     	;# 
   169  001D                     	;# 
   170  001E                     	;# 
   171  001F                     	;# 
   172  0081                     	;# 
   173  0085                     	;# 
   174  0086                     	;# 
   175  0087                     	;# 
   176  0088                     	;# 
   177  0089                     	;# 
   178  008C                     	;# 
   179  008D                     	;# 
   180  008E                     	;# 
   181  008F                     	;# 
   182  0090                     	;# 
   183  0091                     	;# 
   184  0092                     	;# 
   185  0093                     	;# 
   186  0093                     	;# 
   187  0093                     	;# 
   188  0094                     	;# 
   189  0095                     	;# 
   190  0096                     	;# 
   191  0097                     	;# 
   192  0098                     	;# 
   193  0099                     	;# 
   194  009A                     	;# 
   195  009B                     	;# 
   196  009C                     	;# 
   197  009D                     	;# 
   198  009E                     	;# 
   199  009F                     	;# 
   200  0105                     	;# 
   201  0107                     	;# 
   202  0108                     	;# 
   203  0109                     	;# 
   204  010C                     	;# 
   205  010C                     	;# 
   206  010D                     	;# 
   207  010E                     	;# 
   208  010F                     	;# 
   209  0185                     	;# 
   210  0187                     	;# 
   211  0188                     	;# 
   212  0189                     	;# 
   213  018C                     	;# 
   214  018D                     	;# 
   215  001A                     _RCREG	set	26
   216  0019                     _TXREG	set	25
   217  0018                     _RCSTAbits	set	24
   218  0012                     _T2CONbits	set	18
   219  0001                     _TMR0	set	1
   220  0008                     _PORTD	set	8
   221  0005                     _PORTA	set	5
   222  0006                     _PORTB	set	6
   223  000D                     _PIR2bits	set	13
   224  000B                     _INTCONbits	set	11
   225  0006                     _PORTBbits	set	6
   226  001D                     _CCP2CONbits	set	29
   227  001B                     _CCPR2L	set	27
   228  0017                     _CCP1CONbits	set	23
   229  0015                     _CCPR1L	set	21
   230  001E                     _ADRESH	set	30
   231  001F                     _ADCON0bits	set	31
   232  000C                     _PIR1bits	set	12
   233  0065                     _RCIF	set	101
   234  0064                     _TXIF	set	100
   235  0043                     _RD3	set	67
   236  0042                     _RD2	set	66
   237  0058                     _RBIF	set	88
   238  009A                     _SPBRGH	set	154
   239  0099                     _SPBRG	set	153
   240  0098                     _TXSTAbits	set	152
   241  0096                     _IOCBbits	set	150
   242  0095                     _WPUBbits	set	149
   243  008C                     _PIE1bits	set	140
   244  0081                     _OPTION_REGbits	set	129
   245  0092                     _PR2	set	146
   246  0087                     _TRISCbits	set	135
   247  009F                     _ADCON1bits	set	159
   248  008F                     _OSCCONbits	set	143
   249  0096                     _IOCB	set	150
   250  0095                     _WPUB	set	149
   251  0086                     _TRISB	set	134
   252  0088                     _TRISD	set	136
   253  0085                     _TRISA	set	133
   254  010C                     _EEDAT	set	268
   255  010D                     _EEADR	set	269
   256  0187                     _BAUDCTLbits	set	391
   257  0189                     _ANSELH	set	393
   258  0188                     _ANSEL	set	392
   259  018D                     _EECON2	set	397
   260  018C                     _EECON1bits	set	396
   261                           
   262                           	psect	strings
   263  03E7                     __pstrings:
   264  03E7                     stringtab:
   265  03E7                     __stringtab:
   266                           
   267                           ;	String table - string pointers are 2 bytes each
   268  03E7  1BFF               	btfsc	btemp+1,7
   269  03E8  2BF1               	ljmp	stringcode
   270  03E9  1383               	bcf	3,7
   271  03EA  187F               	btfsc	btemp+1,0
   272  03EB  1783               	bsf	3,7
   273  03EC  0800               	movf	0,w
   274  03ED  0A84               	incf	4,f
   275  03EE  1903               	skipnz
   276  03EF  0AFF               	incf	btemp+1,f
   277  03F0  0008               	return
   278  03F1                     stringcode:
   279  03F1  087F               	movf	btemp+1,w
   280  03F2  397F               	andlw	127
   281  03F3  008A               	movwf	10
   282  03F4  0804               	movf	4,w
   283  03F5  0A84               	incf	4,f
   284  03F6  1903               	skipnz
   285  03F7  0AFF               	incf	btemp+1,f
   286  03F8  0082               	movwf	2
   287  03F9                     __stringbase:
   288  03F9                     __end_of__stringtab:
   289                           
   290                           	psect	stringtext
   291  0400                     __pstringtext:
   292  0400                     STR_17:
   293  0400  340D               	retlw	13
   294  0401  340D               	retlw	13
   295  0402  3451               	retlw	81	;'Q'
   296  0403  3475               	retlw	117	;'u'
   297  0404  3465               	retlw	101	;'e'
   298  0405  3420               	retlw	32	;' '
   299  0406  3476               	retlw	118	;'v'
   300  0407  3465               	retlw	101	;'e'
   301  0408  346C               	retlw	108	;'l'
   302  0409  346F               	retlw	111	;'o'
   303  040A  3463               	retlw	99	;'c'
   304  040B  3469               	retlw	105	;'i'
   305  040C  3464               	retlw	100	;'d'
   306  040D  3461               	retlw	97	;'a'
   307  040E  3464               	retlw	100	;'d'
   308  040F  3420               	retlw	32	;' '
   309  0410  346C               	retlw	108	;'l'
   310  0411  3465               	retlw	101	;'e'
   311  0412  3420               	retlw	32	;' '
   312  0413  3471               	retlw	113	;'q'
   313  0414  3475               	retlw	117	;'u'
   314  0415  3469               	retlw	105	;'i'
   315  0416  3465               	retlw	101	;'e'
   316  0417  3472               	retlw	114	;'r'
   317  0418  3461               	retlw	97	;'a'
   318  0419  3420               	retlw	32	;' '
   319  041A  3461               	retlw	97	;'a'
   320  041B  346C               	retlw	108	;'l'
   321  041C  3420               	retlw	32	;' '
   322  041D  3470               	retlw	112	;'p'
   323  041E  3472               	retlw	114	;'r'
   324  041F  346F               	retlw	111	;'o'
   325  0420  3470               	retlw	112	;'p'
   326  0421  3475               	retlw	117	;'u'
   327  0422  346C               	retlw	108	;'l'
   328  0423  3473               	retlw	115	;'s'
   329  0424  346F               	retlw	111	;'o'
   330  0425  3472               	retlw	114	;'r'
   331  0426  3420               	retlw	32	;' '
   332  0427  3479               	retlw	121	;'y'
   333  0428  3420               	retlw	32	;' '
   334  0429  3462               	retlw	98	;'b'
   335  042A  3461               	retlw	97	;'a'
   336  042B  346E               	retlw	110	;'n'
   337  042C  3464               	retlw	100	;'d'
   338  042D  3465               	retlw	101	;'e'
   339  042E  3472               	retlw	114	;'r'
   340  042F  3461               	retlw	97	;'a'
   341  0430  343A               	retlw	58	;':'
   342  0431  3400               	retlw	0
   343  0432                     STR_9:
   344  0432  340D               	retlw	13
   345  0433  340D               	retlw	13
   346  0434  3451               	retlw	81	;'Q'
   347  0435  3475               	retlw	117	;'u'
   348  0436  3465               	retlw	101	;'e'
   349  0437  3420               	retlw	32	;' '
   350  0438  3464               	retlw	100	;'d'
   351  0439  3469               	retlw	105	;'i'
   352  043A  3472               	retlw	114	;'r'
   353  043B  3465               	retlw	101	;'e'
   354  043C  3463               	retlw	99	;'c'
   355  043D  3463               	retlw	99	;'c'
   356  043E  3469               	retlw	105	;'i'
   357  043F  346F               	retlw	111	;'o'
   358  0440  346E               	retlw	110	;'n'
   359  0441  3420               	retlw	32	;' '
   360  0442  3464               	retlw	100	;'d'
   361  0443  3465               	retlw	101	;'e'
   362  0444  3473               	retlw	115	;'s'
   363  0445  3465               	retlw	101	;'e'
   364  0446  3461               	retlw	97	;'a'
   365  0447  3420               	retlw	32	;' '
   366  0448  3463               	retlw	99	;'c'
   367  0449  346F               	retlw	111	;'o'
   368  044A  346C               	retlw	108	;'l'
   369  044B  346F               	retlw	111	;'o'
   370  044C  3463               	retlw	99	;'c'
   371  044D  3461               	retlw	97	;'a'
   372  044E  3472               	retlw	114	;'r'
   373  044F  3420               	retlw	32	;' '
   374  0450  3465               	retlw	101	;'e'
   375  0451  346C               	retlw	108	;'l'
   376  0452  3420               	retlw	32	;' '
   377  0453  3473               	retlw	115	;'s'
   378  0454  3465               	retlw	101	;'e'
   379  0455  3472               	retlw	114	;'r'
   380  0456  3476               	retlw	118	;'v'
   381  0457  346F               	retlw	111	;'o'
   382  0458  3420               	retlw	32	;' '
   383  0459  3431               	retlw	49	;'1'
   384  045A  343A               	retlw	58	;':'
   385  045B  3400               	retlw	0
   386  045C                     STR_21:
   387  045C  340D               	retlw	13
   388  045D  340D               	retlw	13
   389  045E  3451               	retlw	81	;'Q'
   390  045F  3475               	retlw	117	;'u'
   391  0460  3465               	retlw	101	;'e'
   392  0461  3420               	retlw	32	;' '
   393  0462  3464               	retlw	100	;'d'
   394  0463  3465               	retlw	101	;'e'
   395  0464  3473               	retlw	115	;'s'
   396  0465  3465               	retlw	101	;'e'
   397  0466  3461               	retlw	97	;'a'
   398  0467  3420               	retlw	32	;' '
   399  0468  3468               	retlw	104	;'h'
   400  0469  3461               	retlw	97	;'a'
   401  046A  3463               	retlw	99	;'c'
   402  046B  3465               	retlw	101	;'e'
   403  046C  3472               	retlw	114	;'r'
   404  046D  3420               	retlw	32	;' '
   405  046E  3465               	retlw	101	;'e'
   406  046F  346E               	retlw	110	;'n'
   407  0470  3420               	retlw	32	;' '
   408  0471  346C               	retlw	108	;'l'
   409  0472  3461               	retlw	97	;'a'
   410  0473  3420               	retlw	32	;' '
   411  0474  346D               	retlw	109	;'m'
   412  0475  3465               	retlw	101	;'e'
   413  0476  346D               	retlw	109	;'m'
   414  0477  346F               	retlw	111	;'o'
   415  0478  3472               	retlw	114	;'r'
   416  0479  3469               	retlw	105	;'i'
   417  047A  3461               	retlw	97	;'a'
   418  047B  3420               	retlw	32	;' '
   419  047C  3445               	retlw	69	;'E'
   420  047D  3445               	retlw	69	;'E'
   421  047E  3450               	retlw	80	;'P'
   422  047F  3452               	retlw	82	;'R'
   423  0480  344F               	retlw	79	;'O'
   424  0481  344D               	retlw	77	;'M'
   425  0482  343A               	retlw	58	;':'
   426  0483  3400               	retlw	0
   427  0484                     STR_13:
   428  0484  340D               	retlw	13
   429  0485  340D               	retlw	13
   430  0486  3451               	retlw	81	;'Q'
   431  0487  3475               	retlw	117	;'u'
   432  0488  3465               	retlw	101	;'e'
   433  0489  3420               	retlw	32	;' '
   434  048A  3466               	retlw	102	;'f'
   435  048B  3475               	retlw	117	;'u'
   436  048C  346E               	retlw	110	;'n'
   437  048D  3463               	retlw	99	;'c'
   438  048E  3469               	retlw	105	;'i'
   439  048F  346F               	retlw	111	;'o'
   440  0490  346E               	retlw	110	;'n'
   441  0491  3420               	retlw	32	;' '
   442  0492  346C               	retlw	108	;'l'
   443  0493  3465               	retlw	101	;'e'
   444  0494  3420               	retlw	32	;' '
   445  0495  3471               	retlw	113	;'q'
   446  0496  3475               	retlw	117	;'u'
   447  0497  3469               	retlw	105	;'i'
   448  0498  3465               	retlw	101	;'e'
   449  0499  3472               	retlw	114	;'r'
   450  049A  3461               	retlw	97	;'a'
   451  049B  3420               	retlw	32	;' '
   452  049C  3464               	retlw	100	;'d'
   453  049D  3461               	retlw	97	;'a'
   454  049E  3472               	retlw	114	;'r'
   455  049F  3420               	retlw	32	;' '
   456  04A0  3461               	retlw	97	;'a'
   457  04A1  346C               	retlw	108	;'l'
   458  04A2  3420               	retlw	32	;' '
   459  04A3  3463               	retlw	99	;'c'
   460  04A4  3461               	retlw	97	;'a'
   461  04A5  3470               	retlw	112	;'p'
   462  04A6  34C3               	retlw	-61
   463  04A7  34B3               	retlw	-77
   464  04A8  343A               	retlw	58	;':'
   465  04A9  3400               	retlw	0
   466  04AA                     STR_1:
   467  04AA  340D               	retlw	13
   468  04AB  3451               	retlw	81	;'Q'
   469  04AC  3475               	retlw	117	;'u'
   470  04AD  3465               	retlw	101	;'e'
   471  04AE  3420               	retlw	32	;' '
   472  04AF  3461               	retlw	97	;'a'
   473  04B0  3463               	retlw	99	;'c'
   474  04B1  3463               	retlw	99	;'c'
   475  04B2  3469               	retlw	105	;'i'
   476  04B3  346F               	retlw	111	;'o'
   477  04B4  346E               	retlw	110	;'n'
   478  04B5  3420               	retlw	32	;' '
   479  04B6  3464               	retlw	100	;'d'
   480  04B7  3465               	retlw	101	;'e'
   481  04B8  3473               	retlw	115	;'s'
   482  04B9  3465               	retlw	101	;'e'
   483  04BA  3461               	retlw	97	;'a'
   484  04BB  3420               	retlw	32	;' '
   485  04BC  3465               	retlw	101	;'e'
   486  04BD  346A               	retlw	106	;'j'
   487  04BE  3465               	retlw	101	;'e'
   488  04BF  3463               	retlw	99	;'c'
   489  04C0  3475               	retlw	117	;'u'
   490  04C1  3474               	retlw	116	;'t'
   491  04C2  3461               	retlw	97	;'a'
   492  04C3  3472               	retlw	114	;'r'
   493  04C4  343F               	retlw	63	;'?'
   494  04C5  343A               	retlw	58	;':'
   495  04C6  3420               	retlw	32	;' '
   496  04C7  340D               	retlw	13
   497  04C8  3400               	retlw	0
   498  04C9                     STR_3:
   499  04C9  3420               	retlw	32	;' '
   500  04CA  3420               	retlw	32	;' '
   501  04CB  3420               	retlw	32	;' '
   502  04CC  3420               	retlw	32	;' '
   503  04CD  3428               	retlw	40	;'('
   504  04CE  3432               	retlw	50	;'2'
   505  04CF  3429               	retlw	41	;')'
   506  04D0  3420               	retlw	32	;' '
   507  04D1  3420               	retlw	32	;' '
   508  04D2  3443               	retlw	67	;'C'
   509  04D3  346F               	retlw	111	;'o'
   510  04D4  346E               	retlw	110	;'n'
   511  04D5  3466               	retlw	102	;'f'
   512  04D6  3469               	retlw	105	;'i'
   513  04D7  3467               	retlw	103	;'g'
   514  04D8  3475               	retlw	117	;'u'
   515  04D9  3472               	retlw	114	;'r'
   516  04DA  3461               	retlw	97	;'a'
   517  04DB  3472               	retlw	114	;'r'
   518  04DC  3420               	retlw	32	;' '
   519  04DD  3445               	retlw	69	;'E'
   520  04DE  3445               	retlw	69	;'E'
   521  04DF  3450               	retlw	80	;'P'
   522  04E0  3452               	retlw	82	;'R'
   523  04E1  344F               	retlw	79	;'O'
   524  04E2  344D               	retlw	77	;'M'
   525  04E3  3420               	retlw	32	;' '
   526  04E4  3420               	retlw	32	;' '
   527  04E5  340D               	retlw	13
   528  04E6  3400               	retlw	0
   529  04E7                     STR_5:
   530  04E7  340D               	retlw	13
   531  04E8  340D               	retlw	13
   532  04E9  3451               	retlw	81	;'Q'
   533  04EA  3475               	retlw	117	;'u'
   534  04EB  3465               	retlw	101	;'e'
   535  04EC  3420               	retlw	32	;' '
   536  04ED  346D               	retlw	109	;'m'
   537  04EE  346F               	retlw	111	;'o'
   538  04EF  3474               	retlw	116	;'t'
   539  04F0  346F               	retlw	111	;'o'
   540  04F1  3472               	retlw	114	;'r'
   541  04F2  3420               	retlw	32	;' '
   542  04F3  3464               	retlw	100	;'d'
   543  04F4  3465               	retlw	101	;'e'
   544  04F5  3473               	retlw	115	;'s'
   545  04F6  3465               	retlw	101	;'e'
   546  04F7  3461               	retlw	97	;'a'
   547  04F8  3420               	retlw	32	;' '
   548  04F9  3463               	retlw	99	;'c'
   549  04FA  346F               	retlw	111	;'o'
   550  04FB  346E               	retlw	110	;'n'
   551  04FC  3474               	retlw	116	;'t'
   552  04FD  3472               	retlw	114	;'r'
   553  04FE  346F               	retlw	111	;'o'
   554  04FF  346C               	retlw	108	;'l'
   555  0500  3461               	retlw	97	;'a'
   556  0501  3472               	retlw	114	;'r'
   557  0502  343A               	retlw	58	;':'
   558  0503  3400               	retlw	0
   559  0504                     STR_24:
   560  0504  340D               	retlw	13
   561  0505  340D               	retlw	13
   562  0506  3420               	retlw	32	;' '
   563  0507  344E               	retlw	78	;'N'
   564  0508  344F               	retlw	79	;'O'
   565  0509  3453               	retlw	83	;'S'
   566  050A  3420               	retlw	32	;' '
   567  050B  3456               	retlw	86	;'V'
   568  050C  3445               	retlw	69	;'E'
   569  050D  344D               	retlw	77	;'M'
   570  050E  344F               	retlw	79	;'O'
   571  050F  3453               	retlw	83	;'S'
   572  0510  3420               	retlw	32	;' '
   573  0511  3445               	retlw	69	;'E'
   574  0512  344E               	retlw	78	;'N'
   575  0513  3420               	retlw	32	;' '
   576  0514  344C               	retlw	76	;'L'
   577  0515  3441               	retlw	65	;'A'
   578  0516  3420               	retlw	32	;' '
   579  0517  3450               	retlw	80	;'P'
   580  0518  3452               	retlw	82	;'R'
   581  0519  344F               	retlw	79	;'O'
   582  051A  3458               	retlw	88	;'X'
   583  051B  3449               	retlw	73	;'I'
   584  051C  344D               	retlw	77	;'M'
   585  051D  3441               	retlw	65	;'A'
   586  051E  340D               	retlw	13
   587  051F  3400               	retlw	0
   588  0520                     STR_18:
   589  0520  340D               	retlw	13
   590  0521  340D               	retlw	13
   591  0522  3420               	retlw	32	;' '
   592  0523  3428               	retlw	40	;'('
   593  0524  3461               	retlw	97	;'a'
   594  0525  3429               	retlw	41	;')'
   595  0526  3452               	retlw	82	;'R'
   596  0527  3420               	retlw	32	;' '
   597  0528  3464               	retlw	100	;'d'
   598  0529  3465               	retlw	101	;'e'
   599  052A  3420               	retlw	32	;' '
   600  052B  3472               	retlw	114	;'r'
   601  052C  3461               	retlw	97	;'a'
   602  052D  3470               	retlw	112	;'p'
   603  052E  3469               	retlw	105	;'i'
   604  052F  3464               	retlw	100	;'d'
   605  0530  3469               	retlw	105	;'i'
   606  0531  3473               	retlw	115	;'s'
   607  0532  3469               	retlw	105	;'i'
   608  0533  346D               	retlw	109	;'m'
   609  0534  346F               	retlw	111	;'o'
   610  0535  3400               	retlw	0
   611  0536                     STR_4:
   612  0536  3420               	retlw	32	;' '
   613  0537  3420               	retlw	32	;' '
   614  0538  3420               	retlw	32	;' '
   615  0539  3420               	retlw	32	;' '
   616  053A  3428               	retlw	40	;'('
   617  053B  3433               	retlw	51	;'3'
   618  053C  3429               	retlw	41	;')'
   619  053D  3420               	retlw	32	;' '
   620  053E  3454               	retlw	84	;'T'
   621  053F  3465               	retlw	101	;'e'
   622  0540  3472               	retlw	114	;'r'
   623  0541  346D               	retlw	109	;'m'
   624  0542  3469               	retlw	105	;'i'
   625  0543  346E               	retlw	110	;'n'
   626  0544  3461               	retlw	97	;'a'
   627  0545  3472               	retlw	114	;'r'
   628  0546  3420               	retlw	32	;' '
   629  0547  340D               	retlw	13
   630  0548  3400               	retlw	0
   631  0549                     STR_20:
   632  0549  340D               	retlw	13
   633  054A  340D               	retlw	13
   634  054B  3420               	retlw	32	;' '
   635  054C  3428               	retlw	40	;'('
   636  054D  3463               	retlw	99	;'c'
   637  054E  3429               	retlw	41	;')'
   638  054F  3420               	retlw	32	;' '
   639  0550  3444               	retlw	68	;'D'
   640  0551  3420               	retlw	32	;' '
   641  0552  3464               	retlw	100	;'d'
   642  0553  3465               	retlw	101	;'e'
   643  0554  3420               	retlw	32	;' '
   644  0555  3464               	retlw	100	;'d'
   645  0556  3465               	retlw	101	;'e'
   646  0557  3475               	retlw	117	;'u'
   647  0558  346E               	retlw	110	;'n'
   648  0559  3461               	retlw	97	;'a'
   649  055A  3420               	retlw	32	;' '
   650  055B  3400               	retlw	0
   651  055C                     STR_6:
   652  055C  340D               	retlw	13
   653  055D  340D               	retlw	13
   654  055E  3420               	retlw	32	;' '
   655  055F  3428               	retlw	40	;'('
   656  0560  3431               	retlw	49	;'1'
   657  0561  3429               	retlw	41	;')'
   658  0562  3453               	retlw	83	;'S'
   659  0563  3465               	retlw	101	;'e'
   660  0564  3472               	retlw	114	;'r'
   661  0565  3476               	retlw	118	;'v'
   662  0566  346F               	retlw	111	;'o'
   663  0567  346D               	retlw	109	;'m'
   664  0568  346F               	retlw	111	;'o'
   665  0569  3474               	retlw	116	;'t'
   666  056A  346F               	retlw	111	;'o'
   667  056B  3472               	retlw	114	;'r'
   668  056C  3420               	retlw	32	;' '
   669  056D  3431               	retlw	49	;'1'
   670  056E  3400               	retlw	0
   671  056F                     STR_7:
   672  056F  340D               	retlw	13
   673  0570  340D               	retlw	13
   674  0571  3420               	retlw	32	;' '
   675  0572  3428               	retlw	40	;'('
   676  0573  3432               	retlw	50	;'2'
   677  0574  3429               	retlw	41	;')'
   678  0575  3453               	retlw	83	;'S'
   679  0576  3465               	retlw	101	;'e'
   680  0577  3472               	retlw	114	;'r'
   681  0578  3476               	retlw	118	;'v'
   682  0579  346F               	retlw	111	;'o'
   683  057A  346D               	retlw	109	;'m'
   684  057B  346F               	retlw	111	;'o'
   685  057C  3474               	retlw	116	;'t'
   686  057D  346F               	retlw	111	;'o'
   687  057E  3472               	retlw	114	;'r'
   688  057F  3420               	retlw	32	;' '
   689  0580  3432               	retlw	50	;'2'
   690  0581  3400               	retlw	0
   691  0582                     STR_2:
   692  0582  3420               	retlw	32	;' '
   693  0583  3420               	retlw	32	;' '
   694  0584  3420               	retlw	32	;' '
   695  0585  3420               	retlw	32	;' '
   696  0586  3428               	retlw	40	;'('
   697  0587  3431               	retlw	49	;'1'
   698  0588  3429               	retlw	41	;')'
   699  0589  3420               	retlw	32	;' '
   700  058A  344D               	retlw	77	;'M'
   701  058B  346F               	retlw	111	;'o'
   702  058C  3474               	retlw	116	;'t'
   703  058D  346F               	retlw	111	;'o'
   704  058E  3472               	retlw	114	;'r'
   705  058F  3465               	retlw	101	;'e'
   706  0590  3473               	retlw	115	;'s'
   707  0591  3420               	retlw	32	;' '
   708  0592  340D               	retlw	13
   709  0593  3400               	retlw	0
   710  0594                     STR_19:
   711  0594  340D               	retlw	13
   712  0595  340D               	retlw	13
   713  0596  3420               	retlw	32	;' '
   714  0597  3428               	retlw	40	;'('
   715  0598  3462               	retlw	98	;'b'
   716  0599  3429               	retlw	41	;')'
   717  059A  3450               	retlw	80	;'P'
   718  059B  3420               	retlw	32	;' '
   719  059C  3464               	retlw	100	;'d'
   720  059D  3465               	retlw	101	;'e'
   721  059E  3420               	retlw	32	;' '
   722  059F  3470               	retlw	112	;'p'
   723  05A0  3461               	retlw	97	;'a'
   724  05A1  3472               	retlw	114	;'r'
   725  05A2  3461               	retlw	97	;'a'
   726  05A3  3472               	retlw	114	;'r'
   727  05A4  3420               	retlw	32	;' '
   728  05A5  3400               	retlw	0
   729  05A6                     STR_11:
   730  05A6  340D               	retlw	13
   731  05A7  340D               	retlw	13
   732  05A8  3420               	retlw	32	;' '
   733  05A9  3428               	retlw	40	;'('
   734  05AA  3462               	retlw	98	;'b'
   735  05AB  3429               	retlw	41	;')'
   736  05AC  3449               	retlw	73	;'I'
   737  05AD  347A               	retlw	122	;'z'
   738  05AE  3471               	retlw	113	;'q'
   739  05AF  3475               	retlw	117	;'u'
   740  05B0  3469               	retlw	105	;'i'
   741  05B1  3465               	retlw	101	;'e'
   742  05B2  3472               	retlw	114	;'r'
   743  05B3  3464               	retlw	100	;'d'
   744  05B4  3461               	retlw	97	;'a'
   745  05B5  3400               	retlw	0
   746  05B6                     STR_8:
   747  05B6  340D               	retlw	13
   748  05B7  340D               	retlw	13
   749  05B8  3420               	retlw	32	;' '
   750  05B9  3428               	retlw	40	;'('
   751  05BA  3433               	retlw	51	;'3'
   752  05BB  3429               	retlw	41	;')'
   753  05BC  3444               	retlw	68	;'D'
   754  05BD  3443               	retlw	67	;'C'
   755  05BE  3420               	retlw	32	;' '
   756  05BF  3431               	retlw	49	;'1'
   757  05C0  3420               	retlw	32	;' '
   758  05C1  3479               	retlw	121	;'y'
   759  05C2  3420               	retlw	32	;' '
   760  05C3  3432               	retlw	50	;'2'
   761  05C4  3400               	retlw	0
   762  05C5                     STR_10:
   763  05C5  340D               	retlw	13
   764  05C6  340D               	retlw	13
   765  05C7  3420               	retlw	32	;' '
   766  05C8  3428               	retlw	40	;'('
   767  05C9  3461               	retlw	97	;'a'
   768  05CA  3429               	retlw	41	;')'
   769  05CB  3444               	retlw	68	;'D'
   770  05CC  3465               	retlw	101	;'e'
   771  05CD  3472               	retlw	114	;'r'
   772  05CE  3465               	retlw	101	;'e'
   773  05CF  3463               	retlw	99	;'c'
   774  05D0  3468               	retlw	104	;'h'
   775  05D1  3461               	retlw	97	;'a'
   776  05D2  3400               	retlw	0
   777  05D3                     STR_14:
   778  05D3  340D               	retlw	13
   779  05D4  340D               	retlw	13
   780  05D5  3420               	retlw	32	;' '
   781  05D6  3428               	retlw	40	;'('
   782  05D7  3461               	retlw	97	;'a'
   783  05D8  3429               	retlw	41	;')'
   784  05D9  3441               	retlw	65	;'A'
   785  05DA  3472               	retlw	114	;'r'
   786  05DB  3472               	retlw	114	;'r'
   787  05DC  3469               	retlw	105	;'i'
   788  05DD  3462               	retlw	98	;'b'
   789  05DE  3461               	retlw	97	;'a'
   790  05DF  3400               	retlw	0
   791  05E0                     STR_12:
   792  05E0  340D               	retlw	13
   793  05E1  340D               	retlw	13
   794  05E2  3420               	retlw	32	;' '
   795  05E3  3428               	retlw	40	;'('
   796  05E4  3463               	retlw	99	;'c'
   797  05E5  3429               	retlw	41	;')'
   798  05E6  3443               	retlw	67	;'C'
   799  05E7  3465               	retlw	101	;'e'
   800  05E8  346E               	retlw	110	;'n'
   801  05E9  3474               	retlw	116	;'t'
   802  05EA  3472               	retlw	114	;'r'
   803  05EB  346F               	retlw	111	;'o'
   804  05EC  3400               	retlw	0
   805  05ED                     STR_22:
   806  05ED  340D               	retlw	13
   807  05EE  340D               	retlw	13
   808  05EF  3420               	retlw	32	;' '
   809  05F0  3428               	retlw	40	;'('
   810  05F1  3461               	retlw	97	;'a'
   811  05F2  3429               	retlw	41	;')'
   812  05F3  3447               	retlw	71	;'G'
   813  05F4  3472               	retlw	114	;'r'
   814  05F5  3461               	retlw	97	;'a'
   815  05F6  3462               	retlw	98	;'b'
   816  05F7  3461               	retlw	97	;'a'
   817  05F8  3472               	retlw	114	;'r'
   818  05F9  3400               	retlw	0
   819  05FA                     STR_15:
   820  05FA  340D               	retlw	13
   821  05FB  340D               	retlw	13
   822  05FC  3420               	retlw	32	;' '
   823  05FD  3428               	retlw	40	;'('
   824  05FE  3462               	retlw	98	;'b'
   825  05FF  3429               	retlw	41	;')'
   826  0600  3441               	retlw	65	;'A'
   827  0601  3462               	retlw	98	;'b'
   828  0602  3461               	retlw	97	;'a'
   829  0603  346A               	retlw	106	;'j'
   830  0604  346F               	retlw	111	;'o'
   831  0605  3400               	retlw	0
   832  0606                     STR_23:
   833  0606  340D               	retlw	13
   834  0607  340D               	retlw	13
   835  0608  3420               	retlw	32	;' '
   836  0609  3428               	retlw	40	;'('
   837  060A  3462               	retlw	98	;'b'
   838  060B  3429               	retlw	41	;')'
   839  060C  344C               	retlw	76	;'L'
   840  060D  3465               	retlw	101	;'e'
   841  060E  3465               	retlw	101	;'e'
   842  060F  3472               	retlw	114	;'r'
   843  0610  3400               	retlw	0
   844  05E0                     
   845                           	psect	cinit
   846  000F                     start_initialization:	
   847                           ; #config settings
   848                           
   849  000F                     __initialization:
   850                           
   851                           ; Clear objects allocated to COMMON
   852  000F  01F8               	clrf	__pbssCOMMON& (0+127)
   853  0010  01F9               	clrf	(__pbssCOMMON+1)& (0+127)
   854  0011  01FA               	clrf	(__pbssCOMMON+2)& (0+127)
   855  0012  01FB               	clrf	(__pbssCOMMON+3)& (0+127)
   856  0013  01FC               	clrf	(__pbssCOMMON+4)& (0+127)
   857  0014  01FD               	clrf	(__pbssCOMMON+5)& (0+127)
   858                           
   859                           ; Clear objects allocated to BANK0
   860  0015  1283               	bcf	3,5	;RP0=0, select bank0
   861  0016  1303               	bcf	3,6	;RP1=0, select bank0
   862  0017  01AC               	clrf	__pbssBANK0& (0+127)
   863  0018  01AD               	clrf	(__pbssBANK0+1)& (0+127)
   864  0019  01AE               	clrf	(__pbssBANK0+2)& (0+127)
   865  001A  01AF               	clrf	(__pbssBANK0+3)& (0+127)
   866  001B  01B0               	clrf	(__pbssBANK0+4)& (0+127)
   867  001C  01B1               	clrf	(__pbssBANK0+5)& (0+127)
   868  001D                     end_of_initialization:	
   869                           ;End of C runtime variable initialization code
   870                           
   871  001D                     __end_of__initialization:
   872  001D  0183               	clrf	3
   873  001E  120A  118A  2B63   	ljmp	_main	;jump to C main() function
   874                           
   875                           	psect	bssCOMMON
   876  0078                     __pbssCOMMON:
   877  0078                     _bandera:
   878  0078                     	ds	1
   879  0079                     _lec2:
   880  0079                     	ds	1
   881  007A                     _lec1:
   882  007A                     	ds	1
   883  007B                     _data:
   884  007B                     	ds	1
   885  007C                     _sm2:
   886  007C                     	ds	1
   887  007D                     _sm1:
   888  007D                     	ds	1
   889                           
   890                           	psect	bssBANK0
   891  002C                     __pbssBANK0:
   892  002C                     _ciclo:
   893  002C                     	ds	2
   894  002E                     _motor:
   895  002E                     	ds	2
   896  0030                     _lec3:
   897  0030                     	ds	1
   898  0031                     _direc:
   899  0031                     	ds	1
   900                           
   901                           	psect	cstackCOMMON
   902  0070                     __pcstackCOMMON:
   903  0070                     ?_leer_EEP:
   904  0070                     ?_confi:	
   905                           ; 1 bytes @ 0x0
   906                           
   907  0070                     ?_comunicacioneu:	
   908                           ; 1 bytes @ 0x0
   909                           
   910  0070                     ?_ISR:	
   911                           ; 1 bytes @ 0x0
   912                           
   913  0070                     ?_main:	
   914                           ; 1 bytes @ 0x0
   915                           
   916  0070                     ?_putch:	
   917                           ; 1 bytes @ 0x0
   918                           
   919  0070                     ?i1_esc_EEP:	
   920                           ; 1 bytes @ 0x0
   921                           
   922  0070                     ?i1_leer_EEP:	
   923                           ; 1 bytes @ 0x0
   924                           
   925  0070                     ??i1_leer_EEP:	
   926                           ; 1 bytes @ 0x0
   927                           
   928  0070                     i1esc_EEP@direc:	
   929                           ; 1 bytes @ 0x0
   930                           
   931                           
   932                           ; 1 bytes @ 0x0
   933  0070                     	ds	1
   934  0071                     ??i1_esc_EEP:
   935  0071                     i1esc_EEP@data:	
   936                           ; 1 bytes @ 0x1
   937                           
   938  0071                     i1leer_EEP@direc:	
   939                           ; 1 bytes @ 0x1
   940                           
   941                           
   942                           ; 1 bytes @ 0x1
   943  0071                     	ds	1
   944  0072                     i1leer_EEP@data:
   945                           
   946                           ; 1 bytes @ 0x2
   947  0072                     	ds	1
   948  0073                     ??_ISR:
   949                           
   950                           ; 1 bytes @ 0x3
   951  0073                     	ds	5
   952                           
   953                           	psect	cstackBANK0
   954  0020                     __pcstackBANK0:
   955  0020                     ??_leer_EEP:
   956  0020                     ?_esc_EEP:	
   957                           ; 1 bytes @ 0x0
   958                           
   959  0020                     ??_confi:	
   960                           ; 1 bytes @ 0x0
   961                           
   962  0020                     ??_putch:	
   963                           ; 1 bytes @ 0x0
   964                           
   965  0020                     esc_EEP@direc:	
   966                           ; 1 bytes @ 0x0
   967                           
   968  0020                     putch@dt:	
   969                           ; 1 bytes @ 0x0
   970                           
   971                           
   972                           ; 1 bytes @ 0x0
   973  0020                     	ds	1
   974  0021                     ??_esc_EEP:
   975  0021                     ?_printf:	
   976                           ; 1 bytes @ 0x1
   977                           
   978  0021                     esc_EEP@data:	
   979                           ; 2 bytes @ 0x1
   980                           
   981  0021                     leer_EEP@direc:	
   982                           ; 1 bytes @ 0x1
   983                           
   984  0021                     printf@f:	
   985                           ; 1 bytes @ 0x1
   986                           
   987                           
   988                           ; 2 bytes @ 0x1
   989  0021                     	ds	1
   990  0022                     leer_EEP@data:
   991                           
   992                           ; 1 bytes @ 0x2
   993  0022                     	ds	1
   994  0023                     ??_printf:
   995                           
   996                           ; 1 bytes @ 0x3
   997  0023                     	ds	3
   998  0026                     printf@ap:
   999                           
  1000                           ; 1 bytes @ 0x6
  1001  0026                     	ds	1
  1002  0027                     printf@c:
  1003                           
  1004                           ; 1 bytes @ 0x7
  1005  0027                     	ds	1
  1006  0028                     ??_comunicacioneu:
  1007                           
  1008                           ; 1 bytes @ 0x8
  1009  0028                     	ds	3
  1010  002B                     ??_main:
  1011                           
  1012                           ; 1 bytes @ 0xB
  1013  002B                     	ds	1
  1014                           
  1015                           	psect	maintext
  1016  0363                     __pmaintext:	
  1017 ;;
  1018 ;;Main: autosize = 0, tempsize = 1, incstack = 0, save=0
  1019 ;;
  1020 ;; *************** function _main *****************
  1021 ;; Defined at:
  1022 ;;		line 180 in file "Proyecto2.c"
  1023 ;; Parameters:    Size  Location     Type
  1024 ;;		None
  1025 ;; Auto vars:     Size  Location     Type
  1026 ;;		None
  1027 ;; Return value:  Size  Location     Type
  1028 ;;                  1    wreg      void 
  1029 ;; Registers used:
  1030 ;;		wreg, fsr0l, fsr0h, status,2, status,0, btemp+1, pclath, cstack
  1031 ;; Tracked objects:
  1032 ;;		On entry : B00/0
  1033 ;;		On exit  : 0/0
  1034 ;;		Unchanged: 0/0
  1035 ;; Data sizes:     COMMON   BANK0   BANK1   BANK3   BANK2
  1036 ;;      Params:         0       0       0       0       0
  1037 ;;      Locals:         0       0       0       0       0
  1038 ;;      Temps:          0       1       0       0       0
  1039 ;;      Totals:         0       1       0       0       0
  1040 ;;Total ram usage:        1 bytes
  1041 ;; Hardware stack levels required when called:    5
  1042 ;; This function calls:
  1043 ;;		_comunicacioneu
  1044 ;;		_confi
  1045 ;; This function is called by:
  1046 ;;		Startup code after reset
  1047 ;; This function uses a non-reentrant model
  1048 ;;
  1049                           
  1050                           
  1051                           ;psect for function _main
  1052  0363                     _main:
  1053  0363                     l1568:	
  1054                           ;incstack = 0
  1055                           ; Regs used in _main: [wreg-fsr0h+status,2+status,0+btemp+1+pclath+cstack]
  1056                           
  1057                           
  1058                           ;Proyecto2.c: 181:     confi();
  1059  0363  120A  118A  272C  120A  118A  	fcall	_confi
  1060  0368                     l1570:
  1061                           
  1062                           ;Proyecto2.c: 182:     ADCON0bits.GO = 1;
  1063  0368  1283               	bcf	3,5	;RP0=0, select bank0
  1064  0369  1303               	bcf	3,6	;RP1=0, select bank0
  1065  036A  149F               	bsf	31,1	;volatile
  1066  036B                     l1572:
  1067                           
  1068                           ;Proyecto2.c: 185:     {;Proyecto2.c: 186:         if (bandera == 1){
  1069  036B  0378               	decf	_bandera,w
  1070  036C  1D03               	btfss	3,2
  1071  036D  2B6F               	goto	u901
  1072  036E  2B70               	goto	u900
  1073  036F                     u901:
  1074  036F  2B75               	goto	l1576
  1075  0370                     u900:
  1076  0370                     l1574:
  1077                           
  1078                           ;Proyecto2.c: 187:             comunicacioneu();
  1079  0370  120A  118A  2021  120A  118A  	fcall	_comunicacioneu
  1080  0375                     l1576:
  1081                           
  1082                           ;Proyecto2.c: 190:         if(ADCON0bits.GO == 0){
  1083  0375  1283               	bcf	3,5	;RP0=0, select bank0
  1084  0376  1303               	bcf	3,6	;RP1=0, select bank0
  1085  0377  189F               	btfsc	31,1	;volatile
  1086  0378  2B7A               	goto	u911
  1087  0379  2B7B               	goto	u910
  1088  037A                     u911:
  1089  037A  2B6B               	goto	l1572
  1090  037B                     u910:
  1091  037B                     l1578:
  1092                           
  1093                           ;Proyecto2.c: 191:             if (ADCON0bits.CHS == 0){
  1094  037B  0C1F               	rrf	31,w	;volatile
  1095  037C  00AB               	movwf	??_main
  1096  037D  0C2B               	rrf	??_main,w
  1097  037E  390F               	andlw	15
  1098  037F  3A00               	xorlw	0
  1099  0380  1D03               	skipz
  1100  0381  2B83               	goto	u921
  1101  0382  2B84               	goto	u920
  1102  0383                     u921:
  1103  0383  2B89               	goto	l1582
  1104  0384                     u920:
  1105  0384                     l1580:
  1106                           
  1107                           ;Proyecto2.c: 192:                 ADCON0bits.CHS = 1;
  1108  0384  081F               	movf	31,w	;volatile
  1109  0385  39C3               	andlw	-61
  1110  0386  3804               	iorlw	4
  1111  0387  009F               	movwf	31	;volatile
  1112                           
  1113                           ;Proyecto2.c: 193:             }
  1114  0388  2BA2               	goto	l1590
  1115  0389                     l1582:
  1116  0389  0C1F               	rrf	31,w	;volatile
  1117  038A  00AB               	movwf	??_main
  1118  038B  0C2B               	rrf	??_main,w
  1119  038C  390F               	andlw	15
  1120  038D  3A01               	xorlw	1
  1121  038E  1D03               	skipz
  1122  038F  2B91               	goto	u931
  1123  0390  2B92               	goto	u930
  1124  0391                     u931:
  1125  0391  2B97               	goto	l1586
  1126  0392                     u930:
  1127  0392                     l1584:
  1128                           
  1129                           ;Proyecto2.c: 195:                 ADCON0bits.CHS = 2;
  1130  0392  081F               	movf	31,w	;volatile
  1131  0393  39C3               	andlw	-61
  1132  0394  3808               	iorlw	8
  1133  0395  009F               	movwf	31	;volatile
  1134                           
  1135                           ;Proyecto2.c: 196:             }
  1136  0396  2BA2               	goto	l1590
  1137  0397                     l1586:
  1138  0397  0C1F               	rrf	31,w	;volatile
  1139  0398  00AB               	movwf	??_main
  1140  0399  0C2B               	rrf	??_main,w
  1141  039A  390F               	andlw	15
  1142  039B  3A02               	xorlw	2
  1143  039C  1D03               	skipz
  1144  039D  2B9F               	goto	u941
  1145  039E  2BA0               	goto	u940
  1146  039F                     u941:
  1147  039F  2BA2               	goto	l1590
  1148  03A0                     u940:
  1149  03A0                     l1588:
  1150                           
  1151                           ;Proyecto2.c: 198:                 ADCON0bits.CHS = 0;
  1152  03A0  30C3               	movlw	-61
  1153  03A1  059F               	andwf	31,f	;volatile
  1154  03A2                     l1590:
  1155                           
  1156                           ;Proyecto2.c: 200:             _delay((unsigned long)((200)*(8000000/4000000.0)));
  1157  03A2  3084               	movlw	132
  1158  03A3  1283               	bcf	3,5	;RP0=0, select bank0
  1159  03A4  1303               	bcf	3,6	;RP1=0, select bank0
  1160  03A5  00AB               	movwf	??_main
  1161  03A6                     u957:
  1162  03A6  0BAB               	decfsz	??_main,f
  1163  03A7  2BA6               	goto	u957
  1164  03A8  0000               	nop
  1165  03A9                     l1592:
  1166                           
  1167                           ;Proyecto2.c: 201:             ADCON0bits.GO = 1;
  1168  03A9  1283               	bcf	3,5	;RP0=0, select bank0
  1169  03AA  1303               	bcf	3,6	;RP1=0, select bank0
  1170  03AB  149F               	bsf	31,1	;volatile
  1171  03AC  2B6B               	goto	l1572
  1172  03AD  120A  118A  280C   	ljmp	start
  1173  03B0                     __end_of_main:
  1174                           
  1175                           	psect	text1
  1176  072C                     __ptext1:	
  1177 ;; *************** function _confi *****************
  1178 ;; Defined at:
  1179 ;;		line 209 in file "Proyecto2.c"
  1180 ;; Parameters:    Size  Location     Type
  1181 ;;		None
  1182 ;; Auto vars:     Size  Location     Type
  1183 ;;		None
  1184 ;; Return value:  Size  Location     Type
  1185 ;;                  1    wreg      void 
  1186 ;; Registers used:
  1187 ;;		wreg, status,2, status,0
  1188 ;; Tracked objects:
  1189 ;;		On entry : 0/0
  1190 ;;		On exit  : 0/0
  1191 ;;		Unchanged: 0/0
  1192 ;; Data sizes:     COMMON   BANK0   BANK1   BANK3   BANK2
  1193 ;;      Params:         0       0       0       0       0
  1194 ;;      Locals:         0       0       0       0       0
  1195 ;;      Temps:          0       1       0       0       0
  1196 ;;      Totals:         0       1       0       0       0
  1197 ;;Total ram usage:        1 bytes
  1198 ;; Hardware stack levels used:    1
  1199 ;; Hardware stack levels required when called:    2
  1200 ;; This function calls:
  1201 ;;		Nothing
  1202 ;; This function is called by:
  1203 ;;		_main
  1204 ;; This function uses a non-reentrant model
  1205 ;;
  1206                           
  1207                           
  1208                           ;psect for function _confi
  1209  072C                     _confi:
  1210  072C                     l1246:	
  1211                           ;incstack = 0
  1212                           ; Regs used in _confi: [wreg+status,2+status,0]
  1213                           
  1214                           
  1215                           ;Proyecto2.c: 210:   ANSEL = 0b00000111;
  1216  072C  3007               	movlw	7
  1217  072D  1683               	bsf	3,5	;RP0=1, select bank3
  1218  072E  1703               	bsf	3,6	;RP1=1, select bank3
  1219  072F  0088               	movwf	8	;volatile
  1220  0730                     l1248:
  1221                           
  1222                           ;Proyecto2.c: 211:   ANSELH = 0X00;
  1223  0730  0189               	clrf	9	;volatile
  1224  0731                     l1250:
  1225                           
  1226                           ;Proyecto2.c: 213:   TRISA = 0b00000111;
  1227  0731  3007               	movlw	7
  1228  0732  1683               	bsf	3,5	;RP0=1, select bank1
  1229  0733  1303               	bcf	3,6	;RP1=0, select bank1
  1230  0734  0085               	movwf	5	;volatile
  1231                           
  1232                           ;Proyecto2.c: 214:   TRISD = 0X00;
  1233  0735  0188               	clrf	8	;volatile
  1234  0736                     l1252:
  1235                           
  1236                           ;Proyecto2.c: 215:   TRISB = 0x07;
  1237  0736  3007               	movlw	7
  1238  0737  0086               	movwf	6	;volatile
  1239  0738                     l1254:
  1240                           
  1241                           ;Proyecto2.c: 217:   WPUB = 0X07;
  1242  0738  3007               	movlw	7
  1243  0739  0095               	movwf	21	;volatile
  1244  073A                     l1256:
  1245                           
  1246                           ;Proyecto2.c: 218:   IOCB = 0x07;
  1247  073A  3007               	movlw	7
  1248  073B  0096               	movwf	22	;volatile
  1249  073C                     l1258:
  1250                           
  1251                           ;Proyecto2.c: 220:   PORTB = 0X00;
  1252  073C  1283               	bcf	3,5	;RP0=0, select bank0
  1253  073D  1303               	bcf	3,6	;RP1=0, select bank0
  1254  073E  0186               	clrf	6	;volatile
  1255  073F                     l1260:
  1256                           
  1257                           ;Proyecto2.c: 221:   PORTA = 0X00;
  1258  073F  0185               	clrf	5	;volatile
  1259  0740                     l1262:
  1260                           
  1261                           ;Proyecto2.c: 222:   PORTD = 0X00;
  1262  0740  0188               	clrf	8	;volatile
  1263  0741                     l1264:
  1264                           
  1265                           ;Proyecto2.c: 224:   OSCCONbits.IRCF2 = 1;
  1266  0741  1683               	bsf	3,5	;RP0=1, select bank1
  1267  0742  1303               	bcf	3,6	;RP1=0, select bank1
  1268  0743  170F               	bsf	15,6	;volatile
  1269  0744                     l1266:
  1270                           
  1271                           ;Proyecto2.c: 225:   OSCCONbits.IRCF1 = 1;
  1272  0744  168F               	bsf	15,5	;volatile
  1273  0745                     l1268:
  1274                           
  1275                           ;Proyecto2.c: 226:   OSCCONbits.IRCF0 = 1;
  1276  0745  160F               	bsf	15,4	;volatile
  1277  0746                     l1270:
  1278                           
  1279                           ;Proyecto2.c: 227:   OSCCONbits.SCS = 1;
  1280  0746  140F               	bsf	15,0	;volatile
  1281  0747                     l1272:
  1282                           
  1283                           ;Proyecto2.c: 230:   ADCON1bits.ADFM = 0;
  1284  0747  139F               	bcf	31,7	;volatile
  1285  0748                     l1274:
  1286                           
  1287                           ;Proyecto2.c: 231:   ADCON1bits.VCFG0 = 0;
  1288  0748  121F               	bcf	31,4	;volatile
  1289  0749                     l1276:
  1290                           
  1291                           ;Proyecto2.c: 232:   ADCON1bits.VCFG1 = 0;
  1292  0749  129F               	bcf	31,5	;volatile
  1293  074A                     l1278:
  1294                           
  1295                           ;Proyecto2.c: 234:   ADCON0bits.ADCS = 0b10;
  1296  074A  1283               	bcf	3,5	;RP0=0, select bank0
  1297  074B  1303               	bcf	3,6	;RP1=0, select bank0
  1298  074C  081F               	movf	31,w	;volatile
  1299  074D  393F               	andlw	-193
  1300  074E  3880               	iorlw	128
  1301  074F  009F               	movwf	31	;volatile
  1302  0750                     l1280:
  1303                           
  1304                           ;Proyecto2.c: 235:   ADCON0bits.CHS = 0;
  1305  0750  30C3               	movlw	-61
  1306  0751  059F               	andwf	31,f	;volatile
  1307                           
  1308                           ;Proyecto2.c: 236:   _delay((unsigned long)((200)*(8000000/4000000.0)));
  1309  0752  3084               	movlw	132
  1310  0753  1283               	bcf	3,5	;RP0=0, select bank0
  1311  0754  1303               	bcf	3,6	;RP1=0, select bank0
  1312  0755  00A0               	movwf	??_confi
  1313  0756                     u967:
  1314  0756  0BA0               	decfsz	??_confi,f
  1315  0757  2F56               	goto	u967
  1316  0758  0000               	nop
  1317  0759                     l1282:
  1318                           
  1319                           ;Proyecto2.c: 237:   ADCON0bits.ADON = 1;
  1320  0759  1283               	bcf	3,5	;RP0=0, select bank0
  1321  075A  1303               	bcf	3,6	;RP1=0, select bank0
  1322  075B  141F               	bsf	31,0	;volatile
  1323                           
  1324                           ;Proyecto2.c: 238:   _delay((unsigned long)((200)*(8000000/4000000.0)));
  1325  075C  3084               	movlw	132
  1326  075D  1283               	bcf	3,5	;RP0=0, select bank0
  1327  075E  1303               	bcf	3,6	;RP1=0, select bank0
  1328  075F  00A0               	movwf	??_confi
  1329  0760                     u977:
  1330  0760  0BA0               	decfsz	??_confi,f
  1331  0761  2F60               	goto	u977
  1332  0762  0000               	nop
  1333  0763                     l1284:
  1334                           
  1335                           ;Proyecto2.c: 243:   TRISCbits.TRISC2 = 1;
  1336  0763  1683               	bsf	3,5	;RP0=1, select bank1
  1337  0764  1303               	bcf	3,6	;RP1=0, select bank1
  1338  0765  1507               	bsf	7,2	;volatile
  1339  0766                     l1286:
  1340                           
  1341                           ;Proyecto2.c: 244:   TRISCbits.TRISC1 = 1;
  1342  0766  1487               	bsf	7,1	;volatile
  1343                           
  1344                           ;Proyecto2.c: 245:   PR2 = 250;
  1345  0767  30FA               	movlw	250
  1346  0768  0092               	movwf	18	;volatile
  1347  0769                     l1288:
  1348                           
  1349                           ;Proyecto2.c: 246:   CCP1CONbits.P1M = 0;
  1350  0769  303F               	movlw	-193
  1351  076A  1283               	bcf	3,5	;RP0=0, select bank0
  1352  076B  1303               	bcf	3,6	;RP1=0, select bank0
  1353  076C  0597               	andwf	23,f	;volatile
  1354  076D                     l1290:
  1355                           
  1356                           ;Proyecto2.c: 247:   CCP2CONbits.CCP2M = 0b1100;
  1357  076D  081D               	movf	29,w	;volatile
  1358  076E  39F0               	andlw	-16
  1359  076F  380C               	iorlw	12
  1360  0770  009D               	movwf	29	;volatile
  1361  0771                     l1292:
  1362                           
  1363                           ;Proyecto2.c: 248:   CCP1CONbits.CCP1M = 0b1100;
  1364  0771  0817               	movf	23,w	;volatile
  1365  0772  39F0               	andlw	-16
  1366  0773  380C               	iorlw	12
  1367  0774  0097               	movwf	23	;volatile
  1368  0775                     l1294:
  1369                           
  1370                           ;Proyecto2.c: 250:   CCPR1L = 0X0F;
  1371  0775  300F               	movlw	15
  1372  0776  0095               	movwf	21	;volatile
  1373  0777                     l1296:
  1374                           
  1375                           ;Proyecto2.c: 251:   CCPR2L = 0X0F;
  1376  0777  300F               	movlw	15
  1377  0778  009B               	movwf	27	;volatile
  1378  0779                     l1298:
  1379                           
  1380                           ;Proyecto2.c: 252:   CCP1CONbits.DC1B = 0;
  1381  0779  30CF               	movlw	-49
  1382  077A  0597               	andwf	23,f	;volatile
  1383  077B                     l1300:
  1384                           
  1385                           ;Proyecto2.c: 253:   CCP2CONbits.DC2B0 = 0;
  1386  077B  121D               	bcf	29,4	;volatile
  1387  077C                     l1302:
  1388                           
  1389                           ;Proyecto2.c: 254:   CCP2CONbits.DC2B1 = 0;
  1390  077C  129D               	bcf	29,5	;volatile
  1391  077D                     l1304:
  1392                           
  1393                           ;Proyecto2.c: 257:   OPTION_REGbits.T0CS =0;
  1394  077D  1683               	bsf	3,5	;RP0=1, select bank1
  1395  077E  1303               	bcf	3,6	;RP1=0, select bank1
  1396  077F  1281               	bcf	1,5	;volatile
  1397  0780                     l1306:
  1398                           
  1399                           ;Proyecto2.c: 258:   OPTION_REGbits.PSA =0;
  1400  0780  1181               	bcf	1,3	;volatile
  1401  0781                     l1308:
  1402                           
  1403                           ;Proyecto2.c: 259:   OPTION_REGbits.PS = 0b011;
  1404  0781  0801               	movf	1,w	;volatile
  1405  0782  39F8               	andlw	-8
  1406  0783  3803               	iorlw	3
  1407  0784  0081               	movwf	1	;volatile
  1408  0785                     l1310:
  1409                           
  1410                           ;Proyecto2.c: 260:   TMR0 = 246;
  1411  0785  30F6               	movlw	246
  1412  0786  1283               	bcf	3,5	;RP0=0, select bank0
  1413  0787  1303               	bcf	3,6	;RP1=0, select bank0
  1414  0788  0081               	movwf	1	;volatile
  1415  0789                     l1312:
  1416                           
  1417                           ;Proyecto2.c: 263:   PIR1bits.TMR2IF = 0;
  1418  0789  108C               	bcf	12,1	;volatile
  1419                           
  1420                           ;Proyecto2.c: 264:   T2CONbits.T2CKPS = 0b11;
  1421  078A  3003               	movlw	3
  1422  078B  0492               	iorwf	18,f	;volatile
  1423  078C                     l1314:
  1424                           
  1425                           ;Proyecto2.c: 265:   T2CONbits.TMR2ON = 1;
  1426  078C  1512               	bsf	18,2	;volatile
  1427  078D                     l175:	
  1428                           ;Proyecto2.c: 267:   while(PIR1bits.TMR2IF == 0);
  1429                           
  1430  078D  1C8C               	btfss	12,1	;volatile
  1431  078E  2F90               	goto	u511
  1432  078F  2F91               	goto	u510
  1433  0790                     u511:
  1434  0790  2F8D               	goto	l175
  1435  0791                     u510:
  1436  0791                     l177:
  1437                           
  1438                           ;Proyecto2.c: 268:   PIR1bits.TMR2IF = 0;
  1439  0791  108C               	bcf	12,1	;volatile
  1440                           
  1441                           ;Proyecto2.c: 269:   TRISCbits.TRISC2 = 0;
  1442  0792  1683               	bsf	3,5	;RP0=1, select bank1
  1443  0793  1303               	bcf	3,6	;RP1=0, select bank1
  1444  0794  1107               	bcf	7,2	;volatile
  1445                           
  1446                           ;Proyecto2.c: 270:   TRISCbits.TRISC1 = 0;
  1447  0795  1087               	bcf	7,1	;volatile
  1448                           
  1449                           ;Proyecto2.c: 273:   PIR1bits.ADIF = 0;
  1450  0796  1283               	bcf	3,5	;RP0=0, select bank0
  1451  0797  1303               	bcf	3,6	;RP1=0, select bank0
  1452  0798  130C               	bcf	12,6	;volatile
  1453                           
  1454                           ;Proyecto2.c: 274:   PIE1bits.ADIE = 1;
  1455  0799  1683               	bsf	3,5	;RP0=1, select bank1
  1456  079A  1303               	bcf	3,6	;RP1=0, select bank1
  1457  079B  170C               	bsf	12,6	;volatile
  1458                           
  1459                           ;Proyecto2.c: 275:   INTCONbits.PEIE = 1;
  1460  079C  170B               	bsf	11,6	;volatile
  1461                           
  1462                           ;Proyecto2.c: 276:   INTCONbits.GIE = 1;
  1463  079D  178B               	bsf	11,7	;volatile
  1464                           
  1465                           ;Proyecto2.c: 277:   INTCONbits.T0IE = 1;
  1466  079E  168B               	bsf	11,5	;volatile
  1467                           
  1468                           ;Proyecto2.c: 278:   INTCONbits.T0IF = 0;
  1469  079F  110B               	bcf	11,2	;volatile
  1470                           
  1471                           ;Proyecto2.c: 279:   INTCONbits.RBIE = 1;
  1472  07A0  158B               	bsf	11,3	;volatile
  1473                           
  1474                           ;Proyecto2.c: 280:   INTCONbits.RBIF = 0;
  1475  07A1  100B               	bcf	11,0	;volatile
  1476                           
  1477                           ;Proyecto2.c: 285:   OPTION_REGbits.nRBPU = 0;
  1478  07A2  1381               	bcf	1,7	;volatile
  1479                           
  1480                           ;Proyecto2.c: 286:   WPUBbits.WPUB0 = 1;
  1481  07A3  1415               	bsf	21,0	;volatile
  1482                           
  1483                           ;Proyecto2.c: 287:   WPUBbits.WPUB1 = 1;
  1484  07A4  1495               	bsf	21,1	;volatile
  1485                           
  1486                           ;Proyecto2.c: 288:   IOCBbits.IOCB0 = 1;
  1487  07A5  1416               	bsf	22,0	;volatile
  1488                           
  1489                           ;Proyecto2.c: 289:   IOCBbits.IOCB1 = 1;
  1490  07A6  1496               	bsf	22,1	;volatile
  1491                           
  1492                           ;Proyecto2.c: 293:     TXSTAbits.SYNC = 0;
  1493  07A7  1218               	bcf	24,4	;volatile
  1494                           
  1495                           ;Proyecto2.c: 294:     TXSTAbits.BRGH = 1;
  1496  07A8  1518               	bsf	24,2	;volatile
  1497                           
  1498                           ;Proyecto2.c: 296:     BAUDCTLbits.BRG16 = 1;
  1499  07A9  1683               	bsf	3,5	;RP0=1, select bank3
  1500  07AA  1703               	bsf	3,6	;RP1=1, select bank3
  1501  07AB  1587               	bsf	7,3	;volatile
  1502  07AC                     l1316:
  1503                           
  1504                           ;Proyecto2.c: 298:     SPBRG = 207;
  1505  07AC  30CF               	movlw	207
  1506  07AD  1683               	bsf	3,5	;RP0=1, select bank1
  1507  07AE  1303               	bcf	3,6	;RP1=0, select bank1
  1508  07AF  0099               	movwf	25	;volatile
  1509  07B0                     l1318:
  1510                           
  1511                           ;Proyecto2.c: 299:     SPBRGH = 0;
  1512  07B0  019A               	clrf	26	;volatile
  1513  07B1                     l1320:
  1514                           
  1515                           ;Proyecto2.c: 301:     RCSTAbits.SPEN = 1;
  1516  07B1  1283               	bcf	3,5	;RP0=0, select bank0
  1517  07B2  1303               	bcf	3,6	;RP1=0, select bank0
  1518  07B3  1798               	bsf	24,7	;volatile
  1519  07B4                     l1322:
  1520                           
  1521                           ;Proyecto2.c: 302:     RCSTAbits.RX9 = 0;
  1522  07B4  1318               	bcf	24,6	;volatile
  1523  07B5                     l1324:
  1524                           
  1525                           ;Proyecto2.c: 303:     RCSTAbits.CREN = 1;
  1526  07B5  1618               	bsf	24,4	;volatile
  1527  07B6                     l1326:
  1528                           
  1529                           ;Proyecto2.c: 305:     TXSTAbits.TXEN = 1;
  1530  07B6  1683               	bsf	3,5	;RP0=1, select bank1
  1531  07B7  1303               	bcf	3,6	;RP1=0, select bank1
  1532  07B8  1698               	bsf	24,5	;volatile
  1533  07B9                     l178:
  1534  07B9  0008               	return
  1535  07BA                     __end_of_confi:
  1536                           
  1537                           	psect	text2
  1538  0021                     __ptext2:	
  1539 ;; *************** function _comunicacioneu *****************
  1540 ;; Defined at:
  1541 ;;		line 317 in file "Proyecto2.c"
  1542 ;; Parameters:    Size  Location     Type
  1543 ;;		None
  1544 ;; Auto vars:     Size  Location     Type
  1545 ;;		None
  1546 ;; Return value:  Size  Location     Type
  1547 ;;                  1    wreg      void 
  1548 ;; Registers used:
  1549 ;;		wreg, fsr0l, fsr0h, status,2, status,0, btemp+1, pclath, cstack
  1550 ;; Tracked objects:
  1551 ;;		On entry : 0/0
  1552 ;;		On exit  : 0/0
  1553 ;;		Unchanged: 0/0
  1554 ;; Data sizes:     COMMON   BANK0   BANK1   BANK3   BANK2
  1555 ;;      Params:         0       0       0       0       0
  1556 ;;      Locals:         0       0       0       0       0
  1557 ;;      Temps:          0       3       0       0       0
  1558 ;;      Totals:         0       3       0       0       0
  1559 ;;Total ram usage:        3 bytes
  1560 ;; Hardware stack levels used:    1
  1561 ;; Hardware stack levels required when called:    4
  1562 ;; This function calls:
  1563 ;;		_esc_EEP
  1564 ;;		_leer_EEP
  1565 ;;		_printf
  1566 ;; This function is called by:
  1567 ;;		_main
  1568 ;; This function uses a non-reentrant model
  1569 ;;
  1570                           
  1571                           
  1572                           ;psect for function _comunicacioneu
  1573  0021                     _comunicacioneu:
  1574  0021                     l1330:	
  1575                           ;incstack = 0
  1576                           ; Regs used in _comunicacioneu: [wreg-fsr0h+status,2+status,0+btemp+1+pclath+cstack]
  1577                           
  1578                           
  1579                           ;Proyecto2.c: 319:     _delay((unsigned long)((100)*(8000000/4000.0)));
  1580  0021  3002               	movlw	2
  1581  0022  1283               	bcf	3,5	;RP0=0, select bank0
  1582  0023  1303               	bcf	3,6	;RP1=0, select bank0
  1583  0024  00AA               	movwf	??_comunicacioneu+2
  1584  0025  3004               	movlw	4
  1585  0026  00A9               	movwf	??_comunicacioneu+1
  1586  0027  30B9               	movlw	185
  1587  0028  00A8               	movwf	??_comunicacioneu
  1588  0029                     u987:
  1589  0029  0BA8               	decfsz	??_comunicacioneu,f
  1590  002A  2829               	goto	u987
  1591  002B  0BA9               	decfsz	??_comunicacioneu+1,f
  1592  002C  2829               	goto	u987
  1593  002D  0BAA               	decfsz	??_comunicacioneu+2,f
  1594  002E  2829               	goto	u987
  1595  002F  2830               	nop2
  1596  0030                     l1332:
  1597                           
  1598                           ;Proyecto2.c: 320:     printf("\rQue accion desea ejecutar?: \r");
  1599  0030  30AA               	movlw	low (STR_1| (0+32768))
  1600  0031  1283               	bcf	3,5	;RP0=0, select bank0
  1601  0032  1303               	bcf	3,6	;RP1=0, select bank0
  1602  0033  00A1               	movwf	printf@f
  1603  0034  3084               	movlw	high (STR_1| (0+32768))
  1604  0035  00A2               	movwf	printf@f+1
  1605  0036  120A  118A  27BA  120A  118A  	fcall	_printf
  1606  003B                     l1334:
  1607                           
  1608                           ;Proyecto2.c: 321:     _delay((unsigned long)((100)*(8000000/4000.0)));
  1609  003B  3002               	movlw	2
  1610  003C  1283               	bcf	3,5	;RP0=0, select bank0
  1611  003D  1303               	bcf	3,6	;RP1=0, select bank0
  1612  003E  00AA               	movwf	??_comunicacioneu+2
  1613  003F  3004               	movlw	4
  1614  0040  00A9               	movwf	??_comunicacioneu+1
  1615  0041  30B9               	movlw	185
  1616  0042  00A8               	movwf	??_comunicacioneu
  1617  0043                     u997:
  1618  0043  0BA8               	decfsz	??_comunicacioneu,f
  1619  0044  2843               	goto	u997
  1620  0045  0BA9               	decfsz	??_comunicacioneu+1,f
  1621  0046  2843               	goto	u997
  1622  0047  0BAA               	decfsz	??_comunicacioneu+2,f
  1623  0048  2843               	goto	u997
  1624  0049  284A               	nop2
  1625                           
  1626                           ;Proyecto2.c: 322:     printf("    (1) Motores \r");
  1627  004A  3082               	movlw	low (STR_2| (0+32768))
  1628  004B  1283               	bcf	3,5	;RP0=0, select bank0
  1629  004C  1303               	bcf	3,6	;RP1=0, select bank0
  1630  004D  00A1               	movwf	printf@f
  1631  004E  3085               	movlw	high (STR_2| (0+32768))
  1632  004F  00A2               	movwf	printf@f+1
  1633  0050  120A  118A  27BA  120A  118A  	fcall	_printf
  1634  0055                     l1336:
  1635                           
  1636                           ;Proyecto2.c: 323:     _delay((unsigned long)((100)*(8000000/4000.0)));
  1637  0055  3002               	movlw	2
  1638  0056  1283               	bcf	3,5	;RP0=0, select bank0
  1639  0057  1303               	bcf	3,6	;RP1=0, select bank0
  1640  0058  00AA               	movwf	??_comunicacioneu+2
  1641  0059  3004               	movlw	4
  1642  005A  00A9               	movwf	??_comunicacioneu+1
  1643  005B  30B9               	movlw	185
  1644  005C  00A8               	movwf	??_comunicacioneu
  1645  005D                     u1007:
  1646  005D  0BA8               	decfsz	??_comunicacioneu,f
  1647  005E  285D               	goto	u1007
  1648  005F  0BA9               	decfsz	??_comunicacioneu+1,f
  1649  0060  285D               	goto	u1007
  1650  0061  0BAA               	decfsz	??_comunicacioneu+2,f
  1651  0062  285D               	goto	u1007
  1652  0063  2864               	nop2
  1653  0064                     l1338:
  1654                           
  1655                           ;Proyecto2.c: 324:     printf("    (2)  Configurar EEPROM  \r");
  1656  0064  30C9               	movlw	low (STR_3| (0+32768))
  1657  0065  1283               	bcf	3,5	;RP0=0, select bank0
  1658  0066  1303               	bcf	3,6	;RP1=0, select bank0
  1659  0067  00A1               	movwf	printf@f
  1660  0068  3084               	movlw	high (STR_3| (0+32768))
  1661  0069  00A2               	movwf	printf@f+1
  1662  006A  120A  118A  27BA  120A  118A  	fcall	_printf
  1663                           
  1664                           ;Proyecto2.c: 325:     _delay((unsigned long)((100)*(8000000/4000.0)));
  1665  006F  3002               	movlw	2
  1666  0070  1283               	bcf	3,5	;RP0=0, select bank0
  1667  0071  1303               	bcf	3,6	;RP1=0, select bank0
  1668  0072  00AA               	movwf	??_comunicacioneu+2
  1669  0073  3004               	movlw	4
  1670  0074  00A9               	movwf	??_comunicacioneu+1
  1671  0075  30B9               	movlw	185
  1672  0076  00A8               	movwf	??_comunicacioneu
  1673  0077                     u1017:
  1674  0077  0BA8               	decfsz	??_comunicacioneu,f
  1675  0078  2877               	goto	u1017
  1676  0079  0BA9               	decfsz	??_comunicacioneu+1,f
  1677  007A  2877               	goto	u1017
  1678  007B  0BAA               	decfsz	??_comunicacioneu+2,f
  1679  007C  2877               	goto	u1017
  1680  007D  287E               	nop2
  1681  007E                     l1340:
  1682                           
  1683                           ;Proyecto2.c: 326:     printf("    (3) Terminar \r");
  1684  007E  3036               	movlw	low (STR_4| (0+32768))
  1685  007F  1283               	bcf	3,5	;RP0=0, select bank0
  1686  0080  1303               	bcf	3,6	;RP1=0, select bank0
  1687  0081  00A1               	movwf	printf@f
  1688  0082  3085               	movlw	high (STR_4| (0+32768))
  1689  0083  00A2               	movwf	printf@f+1
  1690  0084  120A  118A  27BA  120A  118A  	fcall	_printf
  1691  0089                     l187:	
  1692                           ;Proyecto2.c: 328:     while (RCIF == 0);
  1693                           
  1694  0089  1283               	bcf	3,5	;RP0=0, select bank0
  1695  008A  1303               	bcf	3,6	;RP1=0, select bank0
  1696  008B  1E8C               	btfss	12,5	;volatile
  1697  008C  288E               	goto	u521
  1698  008D  288F               	goto	u520
  1699  008E                     u521:
  1700  008E  2889               	goto	l187
  1701  008F                     u520:
  1702  008F                     l1342:
  1703                           
  1704                           ;Proyecto2.c: 330:     if (RCREG == '1') {
  1705  008F  3031               	movlw	49
  1706  0090  061A               	xorwf	26,w	;volatile
  1707  0091  1D03               	btfss	3,2
  1708  0092  2894               	goto	u531
  1709  0093  2895               	goto	u530
  1710  0094                     u531:
  1711  0094  2A79               	goto	l1434
  1712  0095                     u530:
  1713  0095                     l1344:
  1714  0095                     l1346:	
  1715                           ;Proyecto2.c: 331:         _delay((unsigned long)((00)*(8000000/4000.0)));
  1716                           
  1717                           
  1718                           ;Proyecto2.c: 332:         printf("\r\rQue motor desea controlar:");
  1719  0095  30E7               	movlw	low (STR_5| (0+32768))
  1720  0096  1283               	bcf	3,5	;RP0=0, select bank0
  1721  0097  1303               	bcf	3,6	;RP1=0, select bank0
  1722  0098  00A1               	movwf	printf@f
  1723  0099  3084               	movlw	high (STR_5| (0+32768))
  1724  009A  00A2               	movwf	printf@f+1
  1725  009B  120A  118A  27BA  120A  118A  	fcall	_printf
  1726  00A0                     l1348:
  1727                           
  1728                           ;Proyecto2.c: 333:         _delay((unsigned long)((100)*(8000000/4000.0)));
  1729  00A0  3002               	movlw	2
  1730  00A1  1283               	bcf	3,5	;RP0=0, select bank0
  1731  00A2  1303               	bcf	3,6	;RP1=0, select bank0
  1732  00A3  00AA               	movwf	??_comunicacioneu+2
  1733  00A4  3004               	movlw	4
  1734  00A5  00A9               	movwf	??_comunicacioneu+1
  1735  00A6  30B9               	movlw	185
  1736  00A7  00A8               	movwf	??_comunicacioneu
  1737  00A8                     u1027:
  1738  00A8  0BA8               	decfsz	??_comunicacioneu,f
  1739  00A9  28A8               	goto	u1027
  1740  00AA  0BA9               	decfsz	??_comunicacioneu+1,f
  1741  00AB  28A8               	goto	u1027
  1742  00AC  0BAA               	decfsz	??_comunicacioneu+2,f
  1743  00AD  28A8               	goto	u1027
  1744  00AE  28AF               	nop2
  1745  00AF                     l1350:
  1746                           
  1747                           ;Proyecto2.c: 334:         printf("\r\r (1)Servomotor 1");
  1748  00AF  305C               	movlw	low (STR_6| (0+32768))
  1749  00B0  1283               	bcf	3,5	;RP0=0, select bank0
  1750  00B1  1303               	bcf	3,6	;RP1=0, select bank0
  1751  00B2  00A1               	movwf	printf@f
  1752  00B3  3085               	movlw	high (STR_6| (0+32768))
  1753  00B4  00A2               	movwf	printf@f+1
  1754  00B5  120A  118A  27BA  120A  118A  	fcall	_printf
  1755                           
  1756                           ;Proyecto2.c: 335:         _delay((unsigned long)((100)*(8000000/4000.0)));
  1757  00BA  3002               	movlw	2
  1758  00BB  1283               	bcf	3,5	;RP0=0, select bank0
  1759  00BC  1303               	bcf	3,6	;RP1=0, select bank0
  1760  00BD  00AA               	movwf	??_comunicacioneu+2
  1761  00BE  3004               	movlw	4
  1762  00BF  00A9               	movwf	??_comunicacioneu+1
  1763  00C0  30B9               	movlw	185
  1764  00C1  00A8               	movwf	??_comunicacioneu
  1765  00C2                     u1037:
  1766  00C2  0BA8               	decfsz	??_comunicacioneu,f
  1767  00C3  28C2               	goto	u1037
  1768  00C4  0BA9               	decfsz	??_comunicacioneu+1,f
  1769  00C5  28C2               	goto	u1037
  1770  00C6  0BAA               	decfsz	??_comunicacioneu+2,f
  1771  00C7  28C2               	goto	u1037
  1772  00C8  28C9               	nop2
  1773  00C9                     l1352:
  1774                           
  1775                           ;Proyecto2.c: 336:         printf("\r\r (2)Servomotor 2");
  1776  00C9  306F               	movlw	low (STR_7| (0+32768))
  1777  00CA  1283               	bcf	3,5	;RP0=0, select bank0
  1778  00CB  1303               	bcf	3,6	;RP1=0, select bank0
  1779  00CC  00A1               	movwf	printf@f
  1780  00CD  3085               	movlw	high (STR_7| (0+32768))
  1781  00CE  00A2               	movwf	printf@f+1
  1782  00CF  120A  118A  27BA  120A  118A  	fcall	_printf
  1783  00D4                     l1354:
  1784                           
  1785                           ;Proyecto2.c: 337:         _delay((unsigned long)((100)*(8000000/4000.0)));
  1786  00D4  3002               	movlw	2
  1787  00D5  1283               	bcf	3,5	;RP0=0, select bank0
  1788  00D6  1303               	bcf	3,6	;RP1=0, select bank0
  1789  00D7  00AA               	movwf	??_comunicacioneu+2
  1790  00D8  3004               	movlw	4
  1791  00D9  00A9               	movwf	??_comunicacioneu+1
  1792  00DA  30B9               	movlw	185
  1793  00DB  00A8               	movwf	??_comunicacioneu
  1794  00DC                     u1047:
  1795  00DC  0BA8               	decfsz	??_comunicacioneu,f
  1796  00DD  28DC               	goto	u1047
  1797  00DE  0BA9               	decfsz	??_comunicacioneu+1,f
  1798  00DF  28DC               	goto	u1047
  1799  00E0  0BAA               	decfsz	??_comunicacioneu+2,f
  1800  00E1  28DC               	goto	u1047
  1801  00E2  28E3               	nop2
  1802                           
  1803                           ;Proyecto2.c: 338:         printf("\r\r (3)DC 1 y 2");
  1804  00E3  30B6               	movlw	low (STR_8| (0+32768))
  1805  00E4  1283               	bcf	3,5	;RP0=0, select bank0
  1806  00E5  1303               	bcf	3,6	;RP1=0, select bank0
  1807  00E6  00A1               	movwf	printf@f
  1808  00E7  3085               	movlw	high (STR_8| (0+32768))
  1809  00E8  00A2               	movwf	printf@f+1
  1810  00E9  120A  118A  27BA  120A  118A  	fcall	_printf
  1811  00EE                     l191:	
  1812                           ;Proyecto2.c: 340:         while (RCIF == 0);
  1813                           
  1814  00EE  1283               	bcf	3,5	;RP0=0, select bank0
  1815  00EF  1303               	bcf	3,6	;RP1=0, select bank0
  1816  00F0  1E8C               	btfss	12,5	;volatile
  1817  00F1  28F3               	goto	u541
  1818  00F2  28F4               	goto	u540
  1819  00F3                     u541:
  1820  00F3  28EE               	goto	l191
  1821  00F4                     u540:
  1822  00F4                     l1356:
  1823                           
  1824                           ;Proyecto2.c: 342:         if (RCREG == '1') {
  1825  00F4  3031               	movlw	49
  1826  00F5  061A               	xorwf	26,w	;volatile
  1827  00F6  1D03               	btfss	3,2
  1828  00F7  28F9               	goto	u551
  1829  00F8  28FA               	goto	u550
  1830  00F9                     u551:
  1831  00F9  2974               	goto	l1382
  1832  00FA                     u550:
  1833  00FA                     l1358:
  1834  00FA                     l1360:	
  1835                           ;Proyecto2.c: 343:             _delay((unsigned long)((00)*(8000000/4000.0)));
  1836                           
  1837                           
  1838                           ;Proyecto2.c: 344:             printf("\r\rQue direccion desea colocar el servo 1:");
  1839  00FA  3032               	movlw	low (STR_9| (0+32768))
  1840  00FB  1283               	bcf	3,5	;RP0=0, select bank0
  1841  00FC  1303               	bcf	3,6	;RP1=0, select bank0
  1842  00FD  00A1               	movwf	printf@f
  1843  00FE  3084               	movlw	high (STR_9| (0+32768))
  1844  00FF  00A2               	movwf	printf@f+1
  1845  0100  120A  118A  27BA  120A  118A  	fcall	_printf
  1846  0105                     l1362:
  1847                           
  1848                           ;Proyecto2.c: 345:             _delay((unsigned long)((100)*(8000000/4000.0)));
  1849  0105  3002               	movlw	2
  1850  0106  1283               	bcf	3,5	;RP0=0, select bank0
  1851  0107  1303               	bcf	3,6	;RP1=0, select bank0
  1852  0108  00AA               	movwf	??_comunicacioneu+2
  1853  0109  3004               	movlw	4
  1854  010A  00A9               	movwf	??_comunicacioneu+1
  1855  010B  30B9               	movlw	185
  1856  010C  00A8               	movwf	??_comunicacioneu
  1857  010D                     u1057:
  1858  010D  0BA8               	decfsz	??_comunicacioneu,f
  1859  010E  290D               	goto	u1057
  1860  010F  0BA9               	decfsz	??_comunicacioneu+1,f
  1861  0110  290D               	goto	u1057
  1862  0111  0BAA               	decfsz	??_comunicacioneu+2,f
  1863  0112  290D               	goto	u1057
  1864  0113  2914               	nop2
  1865  0114                     l1364:
  1866                           
  1867                           ;Proyecto2.c: 346:             printf("\r\r (a)Derecha");
  1868  0114  30C5               	movlw	low (STR_10| (0+32768))
  1869  0115  1283               	bcf	3,5	;RP0=0, select bank0
  1870  0116  1303               	bcf	3,6	;RP1=0, select bank0
  1871  0117  00A1               	movwf	printf@f
  1872  0118  3085               	movlw	high (STR_10| (0+32768))
  1873  0119  00A2               	movwf	printf@f+1
  1874  011A  120A  118A  27BA  120A  118A  	fcall	_printf
  1875                           
  1876                           ;Proyecto2.c: 347:             _delay((unsigned long)((100)*(8000000/4000.0)));
  1877  011F  3002               	movlw	2
  1878  0120  1283               	bcf	3,5	;RP0=0, select bank0
  1879  0121  1303               	bcf	3,6	;RP1=0, select bank0
  1880  0122  00AA               	movwf	??_comunicacioneu+2
  1881  0123  3004               	movlw	4
  1882  0124  00A9               	movwf	??_comunicacioneu+1
  1883  0125  30B9               	movlw	185
  1884  0126  00A8               	movwf	??_comunicacioneu
  1885  0127                     u1067:
  1886  0127  0BA8               	decfsz	??_comunicacioneu,f
  1887  0128  2927               	goto	u1067
  1888  0129  0BA9               	decfsz	??_comunicacioneu+1,f
  1889  012A  2927               	goto	u1067
  1890  012B  0BAA               	decfsz	??_comunicacioneu+2,f
  1891  012C  2927               	goto	u1067
  1892  012D  292E               	nop2
  1893  012E                     l1366:
  1894                           
  1895                           ;Proyecto2.c: 348:             printf("\r\r (b)Izquierda");
  1896  012E  30A6               	movlw	low (STR_11| (0+32768))
  1897  012F  1283               	bcf	3,5	;RP0=0, select bank0
  1898  0130  1303               	bcf	3,6	;RP1=0, select bank0
  1899  0131  00A1               	movwf	printf@f
  1900  0132  3085               	movlw	high (STR_11| (0+32768))
  1901  0133  00A2               	movwf	printf@f+1
  1902  0134  120A  118A  27BA  120A  118A  	fcall	_printf
  1903  0139                     l1368:
  1904                           
  1905                           ;Proyecto2.c: 349:             _delay((unsigned long)((100)*(8000000/4000.0)));
  1906  0139  3002               	movlw	2
  1907  013A  1283               	bcf	3,5	;RP0=0, select bank0
  1908  013B  1303               	bcf	3,6	;RP1=0, select bank0
  1909  013C  00AA               	movwf	??_comunicacioneu+2
  1910  013D  3004               	movlw	4
  1911  013E  00A9               	movwf	??_comunicacioneu+1
  1912  013F  30B9               	movlw	185
  1913  0140  00A8               	movwf	??_comunicacioneu
  1914  0141                     u1077:
  1915  0141  0BA8               	decfsz	??_comunicacioneu,f
  1916  0142  2941               	goto	u1077
  1917  0143  0BA9               	decfsz	??_comunicacioneu+1,f
  1918  0144  2941               	goto	u1077
  1919  0145  0BAA               	decfsz	??_comunicacioneu+2,f
  1920  0146  2941               	goto	u1077
  1921  0147  2948               	nop2
  1922                           
  1923                           ;Proyecto2.c: 350:             printf("\r\r (c)Centro");
  1924  0148  30E0               	movlw	low (STR_12| (0+32768))
  1925  0149  1283               	bcf	3,5	;RP0=0, select bank0
  1926  014A  1303               	bcf	3,6	;RP1=0, select bank0
  1927  014B  00A1               	movwf	printf@f
  1928  014C  3085               	movlw	high (STR_12| (0+32768))
  1929  014D  00A2               	movwf	printf@f+1
  1930  014E  120A  118A  27BA  120A  118A  	fcall	_printf
  1931  0153                     l195:	
  1932                           ;Proyecto2.c: 352:             while (RCIF == 0);
  1933                           
  1934  0153  1283               	bcf	3,5	;RP0=0, select bank0
  1935  0154  1303               	bcf	3,6	;RP1=0, select bank0
  1936  0155  1E8C               	btfss	12,5	;volatile
  1937  0156  2958               	goto	u561
  1938  0157  2959               	goto	u560
  1939  0158                     u561:
  1940  0158  2953               	goto	l195
  1941  0159                     u560:
  1942  0159                     l1370:
  1943                           
  1944                           ;Proyecto2.c: 354:             if (RCREG == 'a') {
  1945  0159  3061               	movlw	97
  1946  015A  061A               	xorwf	26,w	;volatile
  1947  015B  1D03               	btfss	3,2
  1948  015C  295E               	goto	u571
  1949  015D  295F               	goto	u570
  1950  015E                     u571:
  1951  015E  2962               	goto	l1374
  1952  015F                     u570:
  1953  015F                     l1372:
  1954                           
  1955                           ;Proyecto2.c: 355:                 CCPR1L = (250 >> 1) + 125;
  1956  015F  30FA               	movlw	250
  1957  0160  0095               	movwf	21	;volatile
  1958                           
  1959                           ;Proyecto2.c: 356:             }
  1960  0161  2974               	goto	l1382
  1961  0162                     l1374:
  1962  0162  3062               	movlw	98
  1963  0163  061A               	xorwf	26,w	;volatile
  1964  0164  1D03               	btfss	3,2
  1965  0165  2967               	goto	u581
  1966  0166  2968               	goto	u580
  1967  0167                     u581:
  1968  0167  296B               	goto	l1378
  1969  0168                     u580:
  1970  0168                     l1376:
  1971                           
  1972                           ;Proyecto2.c: 359:                 CCPR1L = (0 >> 1) + 125;
  1973  0168  307D               	movlw	125
  1974  0169  0095               	movwf	21	;volatile
  1975                           
  1976                           ;Proyecto2.c: 360:             }
  1977  016A  2974               	goto	l1382
  1978  016B                     l1378:
  1979  016B  3063               	movlw	99
  1980  016C  061A               	xorwf	26,w	;volatile
  1981  016D  1D03               	btfss	3,2
  1982  016E  2970               	goto	u591
  1983  016F  2971               	goto	u590
  1984  0170                     u591:
  1985  0170  2974               	goto	l199
  1986  0171                     u590:
  1987  0171                     l1380:
  1988                           
  1989                           ;Proyecto2.c: 363:                 CCPR1L = (127 >> 1) + 125;
  1990  0171  30BC               	movlw	188
  1991  0172  0095               	movwf	21	;volatile
  1992                           
  1993                           ;Proyecto2.c: 364:             }
  1994  0173  2974               	goto	l1382
  1995  0174                     l199:
  1996  0174                     l1382:
  1997                           
  1998                           ;Proyecto2.c: 371:         if (RCREG == '2') {
  1999  0174  3032               	movlw	50
  2000  0175  061A               	xorwf	26,w	;volatile
  2001  0176  1D03               	btfss	3,2
  2002  0177  2979               	goto	u601
  2003  0178  297A               	goto	u600
  2004  0179                     u601:
  2005  0179  29F4               	goto	l1408
  2006  017A                     u600:
  2007  017A                     l1384:
  2008  017A                     l1386:	
  2009                           ;Proyecto2.c: 372:             _delay((unsigned long)((00)*(8000000/4000.0)));
  2010                           
  2011                           
  2012                           ;Proyecto2.c: 373:             printf("\r\rQue funcion le quiera dar al capó:");
  2013  017A  3084               	movlw	low (STR_13| (0+32768))
  2014  017B  1283               	bcf	3,5	;RP0=0, select bank0
  2015  017C  1303               	bcf	3,6	;RP1=0, select bank0
  2016  017D  00A1               	movwf	printf@f
  2017  017E  3084               	movlw	high (STR_13| (0+32768))
  2018  017F  00A2               	movwf	printf@f+1
  2019  0180  120A  118A  27BA  120A  118A  	fcall	_printf
  2020  0185                     l1388:
  2021                           
  2022                           ;Proyecto2.c: 374:             _delay((unsigned long)((100)*(8000000/4000.0)));
  2023  0185  3002               	movlw	2
  2024  0186  1283               	bcf	3,5	;RP0=0, select bank0
  2025  0187  1303               	bcf	3,6	;RP1=0, select bank0
  2026  0188  00AA               	movwf	??_comunicacioneu+2
  2027  0189  3004               	movlw	4
  2028  018A  00A9               	movwf	??_comunicacioneu+1
  2029  018B  30B9               	movlw	185
  2030  018C  00A8               	movwf	??_comunicacioneu
  2031  018D                     u1087:
  2032  018D  0BA8               	decfsz	??_comunicacioneu,f
  2033  018E  298D               	goto	u1087
  2034  018F  0BA9               	decfsz	??_comunicacioneu+1,f
  2035  0190  298D               	goto	u1087
  2036  0191  0BAA               	decfsz	??_comunicacioneu+2,f
  2037  0192  298D               	goto	u1087
  2038  0193  2994               	nop2
  2039  0194                     l1390:
  2040                           
  2041                           ;Proyecto2.c: 375:             printf("\r\r (a)Arriba");
  2042  0194  30D3               	movlw	low (STR_14| (0+32768))
  2043  0195  1283               	bcf	3,5	;RP0=0, select bank0
  2044  0196  1303               	bcf	3,6	;RP1=0, select bank0
  2045  0197  00A1               	movwf	printf@f
  2046  0198  3085               	movlw	high (STR_14| (0+32768))
  2047  0199  00A2               	movwf	printf@f+1
  2048  019A  120A  118A  27BA  120A  118A  	fcall	_printf
  2049                           
  2050                           ;Proyecto2.c: 376:             _delay((unsigned long)((100)*(8000000/4000.0)));
  2051  019F  3002               	movlw	2
  2052  01A0  1283               	bcf	3,5	;RP0=0, select bank0
  2053  01A1  1303               	bcf	3,6	;RP1=0, select bank0
  2054  01A2  00AA               	movwf	??_comunicacioneu+2
  2055  01A3  3004               	movlw	4
  2056  01A4  00A9               	movwf	??_comunicacioneu+1
  2057  01A5  30B9               	movlw	185
  2058  01A6  00A8               	movwf	??_comunicacioneu
  2059  01A7                     u1097:
  2060  01A7  0BA8               	decfsz	??_comunicacioneu,f
  2061  01A8  29A7               	goto	u1097
  2062  01A9  0BA9               	decfsz	??_comunicacioneu+1,f
  2063  01AA  29A7               	goto	u1097
  2064  01AB  0BAA               	decfsz	??_comunicacioneu+2,f
  2065  01AC  29A7               	goto	u1097
  2066  01AD  29AE               	nop2
  2067  01AE                     l1392:
  2068                           
  2069                           ;Proyecto2.c: 377:             printf("\r\r (b)Abajo");
  2070  01AE  30FA               	movlw	low (STR_15| (0+32768))
  2071  01AF  1283               	bcf	3,5	;RP0=0, select bank0
  2072  01B0  1303               	bcf	3,6	;RP1=0, select bank0
  2073  01B1  00A1               	movwf	printf@f
  2074  01B2  3085               	movlw	high (STR_15| (0+32768))
  2075  01B3  00A2               	movwf	printf@f+1
  2076  01B4  120A  118A  27BA  120A  118A  	fcall	_printf
  2077  01B9                     l1394:
  2078                           
  2079                           ;Proyecto2.c: 378:             _delay((unsigned long)((100)*(8000000/4000.0)));
  2080  01B9  3002               	movlw	2
  2081  01BA  1283               	bcf	3,5	;RP0=0, select bank0
  2082  01BB  1303               	bcf	3,6	;RP1=0, select bank0
  2083  01BC  00AA               	movwf	??_comunicacioneu+2
  2084  01BD  3004               	movlw	4
  2085  01BE  00A9               	movwf	??_comunicacioneu+1
  2086  01BF  30B9               	movlw	185
  2087  01C0  00A8               	movwf	??_comunicacioneu
  2088  01C1                     u1107:
  2089  01C1  0BA8               	decfsz	??_comunicacioneu,f
  2090  01C2  29C1               	goto	u1107
  2091  01C3  0BA9               	decfsz	??_comunicacioneu+1,f
  2092  01C4  29C1               	goto	u1107
  2093  01C5  0BAA               	decfsz	??_comunicacioneu+2,f
  2094  01C6  29C1               	goto	u1107
  2095  01C7  29C8               	nop2
  2096                           
  2097                           ;Proyecto2.c: 379:             printf("\r\r (c)Centro");
  2098  01C8  30E0               	movlw	low (STR_12| (0+32768))
  2099  01C9  1283               	bcf	3,5	;RP0=0, select bank0
  2100  01CA  1303               	bcf	3,6	;RP1=0, select bank0
  2101  01CB  00A1               	movwf	printf@f
  2102  01CC  3085               	movlw	high (STR_12| (0+32768))
  2103  01CD  00A2               	movwf	printf@f+1
  2104  01CE  120A  118A  27BA  120A  118A  	fcall	_printf
  2105  01D3                     l205:	
  2106                           ;Proyecto2.c: 381:             while (RCIF == 0);
  2107                           
  2108  01D3  1283               	bcf	3,5	;RP0=0, select bank0
  2109  01D4  1303               	bcf	3,6	;RP1=0, select bank0
  2110  01D5  1E8C               	btfss	12,5	;volatile
  2111  01D6  29D8               	goto	u611
  2112  01D7  29D9               	goto	u610
  2113  01D8                     u611:
  2114  01D8  29D3               	goto	l205
  2115  01D9                     u610:
  2116  01D9                     l1396:
  2117                           
  2118                           ;Proyecto2.c: 383:             if (RCREG == 'a') {
  2119  01D9  3061               	movlw	97
  2120  01DA  061A               	xorwf	26,w	;volatile
  2121  01DB  1D03               	btfss	3,2
  2122  01DC  29DE               	goto	u621
  2123  01DD  29DF               	goto	u620
  2124  01DE                     u621:
  2125  01DE  29E2               	goto	l1400
  2126  01DF                     u620:
  2127  01DF                     l1398:
  2128                           
  2129                           ;Proyecto2.c: 384:                 CCPR2L = (250 >> 1) + 125;
  2130  01DF  30FA               	movlw	250
  2131  01E0  009B               	movwf	27	;volatile
  2132                           
  2133                           ;Proyecto2.c: 385:             }
  2134  01E1  29F4               	goto	l1408
  2135  01E2                     l1400:
  2136  01E2  3062               	movlw	98
  2137  01E3  061A               	xorwf	26,w	;volatile
  2138  01E4  1D03               	btfss	3,2
  2139  01E5  29E7               	goto	u631
  2140  01E6  29E8               	goto	u630
  2141  01E7                     u631:
  2142  01E7  29EB               	goto	l1404
  2143  01E8                     u630:
  2144  01E8                     l1402:
  2145                           
  2146                           ;Proyecto2.c: 388:                 CCPR2L = (0 >> 1) + 125;
  2147  01E8  307D               	movlw	125
  2148  01E9  009B               	movwf	27	;volatile
  2149                           
  2150                           ;Proyecto2.c: 389:             }
  2151  01EA  29F4               	goto	l1408
  2152  01EB                     l1404:
  2153  01EB  3063               	movlw	99
  2154  01EC  061A               	xorwf	26,w	;volatile
  2155  01ED  1D03               	btfss	3,2
  2156  01EE  29F0               	goto	u641
  2157  01EF  29F1               	goto	u640
  2158  01F0                     u641:
  2159  01F0  29F4               	goto	l209
  2160  01F1                     u640:
  2161  01F1                     l1406:
  2162                           
  2163                           ;Proyecto2.c: 392:                 CCPR2L = (127 >> 1) + 125;
  2164  01F1  30BC               	movlw	188
  2165  01F2  009B               	movwf	27	;volatile
  2166                           
  2167                           ;Proyecto2.c: 393:             }
  2168  01F3  29F4               	goto	l1408
  2169  01F4                     l209:
  2170  01F4                     l1408:
  2171                           
  2172                           ;Proyecto2.c: 400:         if (RCREG == '3') {
  2173  01F4  3033               	movlw	51
  2174  01F5  061A               	xorwf	26,w	;volatile
  2175  01F6  1D03               	btfss	3,2
  2176  01F7  29F9               	goto	u651
  2177  01F8  29FA               	goto	u650
  2178  01F9                     u651:
  2179  01F9  2B62               	goto	l236
  2180  01FA                     u650:
  2181  01FA                     l1410:
  2182  01FA                     l1412:	
  2183                           ;Proyecto2.c: 401:             _delay((unsigned long)((00)*(8000000/4000.0)));
  2184                           
  2185                           
  2186                           ;Proyecto2.c: 402:             printf("\r\rQue velocidad le quiera al propulsor y bander
      +                          a:");
  2187  01FA  3000               	movlw	low (STR_17| (0+32768))
  2188  01FB  1283               	bcf	3,5	;RP0=0, select bank0
  2189  01FC  1303               	bcf	3,6	;RP1=0, select bank0
  2190  01FD  00A1               	movwf	printf@f
  2191  01FE  3084               	movlw	high (STR_17| (0+32768))
  2192  01FF  00A2               	movwf	printf@f+1
  2193  0200  120A  118A  27BA  120A  118A  	fcall	_printf
  2194  0205                     l1414:
  2195                           
  2196                           ;Proyecto2.c: 403:             _delay((unsigned long)((100)*(8000000/4000.0)));
  2197  0205  3002               	movlw	2
  2198  0206  1283               	bcf	3,5	;RP0=0, select bank0
  2199  0207  1303               	bcf	3,6	;RP1=0, select bank0
  2200  0208  00AA               	movwf	??_comunicacioneu+2
  2201  0209  3004               	movlw	4
  2202  020A  00A9               	movwf	??_comunicacioneu+1
  2203  020B  30B9               	movlw	185
  2204  020C  00A8               	movwf	??_comunicacioneu
  2205  020D                     u1117:
  2206  020D  0BA8               	decfsz	??_comunicacioneu,f
  2207  020E  2A0D               	goto	u1117
  2208  020F  0BA9               	decfsz	??_comunicacioneu+1,f
  2209  0210  2A0D               	goto	u1117
  2210  0211  0BAA               	decfsz	??_comunicacioneu+2,f
  2211  0212  2A0D               	goto	u1117
  2212  0213  2A14               	nop2
  2213  0214                     l1416:
  2214                           
  2215                           ;Proyecto2.c: 404:             printf("\r\r (a)R de rapidisimo");
  2216  0214  3020               	movlw	low (STR_18| (0+32768))
  2217  0215  1283               	bcf	3,5	;RP0=0, select bank0
  2218  0216  1303               	bcf	3,6	;RP1=0, select bank0
  2219  0217  00A1               	movwf	printf@f
  2220  0218  3085               	movlw	high (STR_18| (0+32768))
  2221  0219  00A2               	movwf	printf@f+1
  2222  021A  120A  118A  27BA  120A  118A  	fcall	_printf
  2223                           
  2224                           ;Proyecto2.c: 405:             _delay((unsigned long)((100)*(8000000/4000.0)));
  2225  021F  3002               	movlw	2
  2226  0220  1283               	bcf	3,5	;RP0=0, select bank0
  2227  0221  1303               	bcf	3,6	;RP1=0, select bank0
  2228  0222  00AA               	movwf	??_comunicacioneu+2
  2229  0223  3004               	movlw	4
  2230  0224  00A9               	movwf	??_comunicacioneu+1
  2231  0225  30B9               	movlw	185
  2232  0226  00A8               	movwf	??_comunicacioneu
  2233  0227                     u1127:
  2234  0227  0BA8               	decfsz	??_comunicacioneu,f
  2235  0228  2A27               	goto	u1127
  2236  0229  0BA9               	decfsz	??_comunicacioneu+1,f
  2237  022A  2A27               	goto	u1127
  2238  022B  0BAA               	decfsz	??_comunicacioneu+2,f
  2239  022C  2A27               	goto	u1127
  2240  022D  2A2E               	nop2
  2241  022E                     l1418:
  2242                           
  2243                           ;Proyecto2.c: 406:             printf("\r\r (b)P de parar ");
  2244  022E  3094               	movlw	low (STR_19| (0+32768))
  2245  022F  1283               	bcf	3,5	;RP0=0, select bank0
  2246  0230  1303               	bcf	3,6	;RP1=0, select bank0
  2247  0231  00A1               	movwf	printf@f
  2248  0232  3085               	movlw	high (STR_19| (0+32768))
  2249  0233  00A2               	movwf	printf@f+1
  2250  0234  120A  118A  27BA  120A  118A  	fcall	_printf
  2251  0239                     l1420:
  2252                           
  2253                           ;Proyecto2.c: 407:             _delay((unsigned long)((100)*(8000000/4000.0)));
  2254  0239  3002               	movlw	2
  2255  023A  1283               	bcf	3,5	;RP0=0, select bank0
  2256  023B  1303               	bcf	3,6	;RP1=0, select bank0
  2257  023C  00AA               	movwf	??_comunicacioneu+2
  2258  023D  3004               	movlw	4
  2259  023E  00A9               	movwf	??_comunicacioneu+1
  2260  023F  30B9               	movlw	185
  2261  0240  00A8               	movwf	??_comunicacioneu
  2262  0241                     u1137:
  2263  0241  0BA8               	decfsz	??_comunicacioneu,f
  2264  0242  2A41               	goto	u1137
  2265  0243  0BA9               	decfsz	??_comunicacioneu+1,f
  2266  0244  2A41               	goto	u1137
  2267  0245  0BAA               	decfsz	??_comunicacioneu+2,f
  2268  0246  2A41               	goto	u1137
  2269  0247  2A48               	nop2
  2270                           
  2271                           ;Proyecto2.c: 408:             printf("\r\r (c) D de deuna ");
  2272  0248  3049               	movlw	low (STR_20| (0+32768))
  2273  0249  1283               	bcf	3,5	;RP0=0, select bank0
  2274  024A  1303               	bcf	3,6	;RP1=0, select bank0
  2275  024B  00A1               	movwf	printf@f
  2276  024C  3085               	movlw	high (STR_20| (0+32768))
  2277  024D  00A2               	movwf	printf@f+1
  2278  024E  120A  118A  27BA  120A  118A  	fcall	_printf
  2279  0253                     l215:	
  2280                           ;Proyecto2.c: 410:             while (RCIF == 0);
  2281                           
  2282  0253  1283               	bcf	3,5	;RP0=0, select bank0
  2283  0254  1303               	bcf	3,6	;RP1=0, select bank0
  2284  0255  1E8C               	btfss	12,5	;volatile
  2285  0256  2A58               	goto	u661
  2286  0257  2A59               	goto	u660
  2287  0258                     u661:
  2288  0258  2A53               	goto	l215
  2289  0259                     u660:
  2290  0259                     l1422:
  2291                           
  2292                           ;Proyecto2.c: 412:             if (RCREG == 'a') {
  2293  0259  3061               	movlw	97
  2294  025A  061A               	xorwf	26,w	;volatile
  2295  025B  1D03               	btfss	3,2
  2296  025C  2A5E               	goto	u671
  2297  025D  2A5F               	goto	u670
  2298  025E                     u671:
  2299  025E  2A64               	goto	l1426
  2300  025F                     u670:
  2301  025F                     l1424:
  2302                           
  2303                           ;Proyecto2.c: 413:                 motor = 255;
  2304  025F  30FF               	movlw	255
  2305  0260  00AE               	movwf	_motor
  2306  0261  3000               	movlw	0
  2307  0262  00AF               	movwf	_motor+1
  2308                           
  2309                           ;Proyecto2.c: 414:             }
  2310  0263  2B62               	goto	l236
  2311  0264                     l1426:
  2312  0264  3062               	movlw	98
  2313  0265  061A               	xorwf	26,w	;volatile
  2314  0266  1D03               	btfss	3,2
  2315  0267  2A69               	goto	u681
  2316  0268  2A6A               	goto	u680
  2317  0269                     u681:
  2318  0269  2A6D               	goto	l1430
  2319  026A                     u680:
  2320  026A                     l1428:
  2321                           
  2322                           ;Proyecto2.c: 417:                 motor = 0;
  2323  026A  01AE               	clrf	_motor
  2324  026B  01AF               	clrf	_motor+1
  2325                           
  2326                           ;Proyecto2.c: 418:             }
  2327  026C  2B62               	goto	l236
  2328  026D                     l1430:
  2329  026D  3063               	movlw	99
  2330  026E  061A               	xorwf	26,w	;volatile
  2331  026F  1D03               	btfss	3,2
  2332  0270  2A72               	goto	u691
  2333  0271  2A73               	goto	u690
  2334  0272                     u691:
  2335  0272  2A78               	goto	l219
  2336  0273                     u690:
  2337  0273                     l1432:
  2338                           
  2339                           ;Proyecto2.c: 421:                 motor = 127;
  2340  0273  307F               	movlw	127
  2341  0274  00AE               	movwf	_motor
  2342  0275  3000               	movlw	0
  2343  0276  00AF               	movwf	_motor+1
  2344                           
  2345                           ;Proyecto2.c: 422:             }
  2346  0277  2B62               	goto	l236
  2347  0278                     l219:
  2348  0278  2B62               	goto	l236
  2349  0279                     l1434:
  2350  0279  3032               	movlw	50
  2351  027A  061A               	xorwf	26,w	;volatile
  2352  027B  1D03               	btfss	3,2
  2353  027C  2A7E               	goto	u701
  2354  027D  2A7F               	goto	u700
  2355  027E                     u701:
  2356  027E  2B3F               	goto	l1472
  2357  027F                     u700:
  2358  027F                     l1436:
  2359                           
  2360                           ;Proyecto2.c: 432:         _delay((unsigned long)((500)*(8000000/4000.0)));
  2361  027F  3006               	movlw	6
  2362  0280  1283               	bcf	3,5	;RP0=0, select bank0
  2363  0281  1303               	bcf	3,6	;RP1=0, select bank0
  2364  0282  00AA               	movwf	??_comunicacioneu+2
  2365  0283  3013               	movlw	19
  2366  0284  00A9               	movwf	??_comunicacioneu+1
  2367  0285  30AD               	movlw	173
  2368  0286  00A8               	movwf	??_comunicacioneu
  2369  0287                     u1147:
  2370  0287  0BA8               	decfsz	??_comunicacioneu,f
  2371  0288  2A87               	goto	u1147
  2372  0289  0BA9               	decfsz	??_comunicacioneu+1,f
  2373  028A  2A87               	goto	u1147
  2374  028B  0BAA               	decfsz	??_comunicacioneu+2,f
  2375  028C  2A87               	goto	u1147
  2376  028D                     l1438:
  2377                           
  2378                           ;Proyecto2.c: 433:         printf("\r\rQue desea hacer en la memoria EEPROM:");
  2379  028D  305C               	movlw	low (STR_21| (0+32768))
  2380  028E  1283               	bcf	3,5	;RP0=0, select bank0
  2381  028F  1303               	bcf	3,6	;RP1=0, select bank0
  2382  0290  00A1               	movwf	printf@f
  2383  0291  3084               	movlw	high (STR_21| (0+32768))
  2384  0292  00A2               	movwf	printf@f+1
  2385  0293  120A  118A  27BA  120A  118A  	fcall	_printf
  2386  0298                     l1440:
  2387                           
  2388                           ;Proyecto2.c: 434:         _delay((unsigned long)((100)*(8000000/4000.0)));
  2389  0298  3002               	movlw	2
  2390  0299  1283               	bcf	3,5	;RP0=0, select bank0
  2391  029A  1303               	bcf	3,6	;RP1=0, select bank0
  2392  029B  00AA               	movwf	??_comunicacioneu+2
  2393  029C  3004               	movlw	4
  2394  029D  00A9               	movwf	??_comunicacioneu+1
  2395  029E  30B9               	movlw	185
  2396  029F  00A8               	movwf	??_comunicacioneu
  2397  02A0                     u1157:
  2398  02A0  0BA8               	decfsz	??_comunicacioneu,f
  2399  02A1  2AA0               	goto	u1157
  2400  02A2  0BA9               	decfsz	??_comunicacioneu+1,f
  2401  02A3  2AA0               	goto	u1157
  2402  02A4  0BAA               	decfsz	??_comunicacioneu+2,f
  2403  02A5  2AA0               	goto	u1157
  2404  02A6  2AA7               	nop2
  2405                           
  2406                           ;Proyecto2.c: 435:         printf("\r\r (a)Grabar");
  2407  02A7  30ED               	movlw	low (STR_22| (0+32768))
  2408  02A8  1283               	bcf	3,5	;RP0=0, select bank0
  2409  02A9  1303               	bcf	3,6	;RP1=0, select bank0
  2410  02AA  00A1               	movwf	printf@f
  2411  02AB  3085               	movlw	high (STR_22| (0+32768))
  2412  02AC  00A2               	movwf	printf@f+1
  2413  02AD  120A  118A  27BA  120A  118A  	fcall	_printf
  2414  02B2                     l1442:
  2415                           
  2416                           ;Proyecto2.c: 436:         _delay((unsigned long)((100)*(8000000/4000.0)));
  2417  02B2  3002               	movlw	2
  2418  02B3  1283               	bcf	3,5	;RP0=0, select bank0
  2419  02B4  1303               	bcf	3,6	;RP1=0, select bank0
  2420  02B5  00AA               	movwf	??_comunicacioneu+2
  2421  02B6  3004               	movlw	4
  2422  02B7  00A9               	movwf	??_comunicacioneu+1
  2423  02B8  30B9               	movlw	185
  2424  02B9  00A8               	movwf	??_comunicacioneu
  2425  02BA                     u1167:
  2426  02BA  0BA8               	decfsz	??_comunicacioneu,f
  2427  02BB  2ABA               	goto	u1167
  2428  02BC  0BA9               	decfsz	??_comunicacioneu+1,f
  2429  02BD  2ABA               	goto	u1167
  2430  02BE  0BAA               	decfsz	??_comunicacioneu+2,f
  2431  02BF  2ABA               	goto	u1167
  2432  02C0  2AC1               	nop2
  2433  02C1                     l1444:
  2434                           
  2435                           ;Proyecto2.c: 437:         printf("\r\r (b)Leer");
  2436  02C1  3006               	movlw	low (STR_23| (0+32768))
  2437  02C2  1283               	bcf	3,5	;RP0=0, select bank0
  2438  02C3  1303               	bcf	3,6	;RP1=0, select bank0
  2439  02C4  00A1               	movwf	printf@f
  2440  02C5  3086               	movlw	high (STR_23| (0+32768))
  2441  02C6  00A2               	movwf	printf@f+1
  2442  02C7  120A  118A  27BA  120A  118A  	fcall	_printf
  2443  02CC                     l226:	
  2444                           ;Proyecto2.c: 440:         while (RCIF == 0);
  2445                           
  2446  02CC  1283               	bcf	3,5	;RP0=0, select bank0
  2447  02CD  1303               	bcf	3,6	;RP1=0, select bank0
  2448  02CE  1E8C               	btfss	12,5	;volatile
  2449  02CF  2AD1               	goto	u711
  2450  02D0  2AD2               	goto	u710
  2451  02D1                     u711:
  2452  02D1  2ACC               	goto	l226
  2453  02D2                     u710:
  2454  02D2                     l1446:
  2455                           
  2456                           ;Proyecto2.c: 442:         if (RCREG == 'a') {
  2457  02D2  3061               	movlw	97
  2458  02D3  061A               	xorwf	26,w	;volatile
  2459  02D4  1D03               	btfss	3,2
  2460  02D5  2AD7               	goto	u721
  2461  02D6  2AD8               	goto	u720
  2462  02D7                     u721:
  2463  02D7  2B01               	goto	l1456
  2464  02D8                     u720:
  2465  02D8                     l1448:
  2466                           
  2467                           ;Proyecto2.c: 443:             PORTBbits.RB0 = 1;
  2468  02D8  1406               	bsf	6,0	;volatile
  2469  02D9                     l1450:
  2470                           
  2471                           ;Proyecto2.c: 445:             esc_EEP(sm1, 0x10);
  2472  02D9  3010               	movlw	16
  2473  02DA  00A8               	movwf	??_comunicacioneu
  2474  02DB  0828               	movf	??_comunicacioneu,w
  2475  02DC  00A0               	movwf	esc_EEP@direc
  2476  02DD  087D               	movf	_sm1,w
  2477  02DE  120A  118A  23B0  120A  118A  	fcall	_esc_EEP
  2478                           
  2479                           ;Proyecto2.c: 446:             esc_EEP(sm2, 0x11);
  2480  02E3  3011               	movlw	17
  2481  02E4  1283               	bcf	3,5	;RP0=0, select bank0
  2482  02E5  1303               	bcf	3,6	;RP1=0, select bank0
  2483  02E6  00A8               	movwf	??_comunicacioneu
  2484  02E7  0828               	movf	??_comunicacioneu,w
  2485  02E8  00A0               	movwf	esc_EEP@direc
  2486  02E9  087C               	movf	_sm2,w
  2487  02EA  120A  118A  23B0  120A  118A  	fcall	_esc_EEP
  2488  02EF                     l1452:
  2489                           
  2490                           ;Proyecto2.c: 448:             _delay((unsigned long)((1000)*(8000000/4000.0)));
  2491  02EF  300B               	movlw	11
  2492  02F0  1283               	bcf	3,5	;RP0=0, select bank0
  2493  02F1  1303               	bcf	3,6	;RP1=0, select bank0
  2494  02F2  00AA               	movwf	??_comunicacioneu+2
  2495  02F3  3026               	movlw	38
  2496  02F4  00A9               	movwf	??_comunicacioneu+1
  2497  02F5  305D               	movlw	93
  2498  02F6  00A8               	movwf	??_comunicacioneu
  2499  02F7                     u1177:
  2500  02F7  0BA8               	decfsz	??_comunicacioneu,f
  2501  02F8  2AF7               	goto	u1177
  2502  02F9  0BA9               	decfsz	??_comunicacioneu+1,f
  2503  02FA  2AF7               	goto	u1177
  2504  02FB  0BAA               	decfsz	??_comunicacioneu+2,f
  2505  02FC  2AF7               	goto	u1177
  2506  02FD                     l1454:
  2507                           
  2508                           ;Proyecto2.c: 449:             PORTBbits.RB0 = 0;
  2509  02FD  1283               	bcf	3,5	;RP0=0, select bank0
  2510  02FE  1303               	bcf	3,6	;RP1=0, select bank0
  2511  02FF  1006               	bcf	6,0	;volatile
  2512                           
  2513                           ;Proyecto2.c: 450:         }
  2514  0300  2B62               	goto	l236
  2515  0301                     l1456:
  2516  0301  3062               	movlw	98
  2517  0302  061A               	xorwf	26,w	;volatile
  2518  0303  1D03               	btfss	3,2
  2519  0304  2B06               	goto	u731
  2520  0305  2B07               	goto	u730
  2521  0306                     u731:
  2522  0306  2A78               	goto	l219
  2523  0307                     u730:
  2524  0307                     l1458:
  2525                           
  2526                           ;Proyecto2.c: 453:             ADCON0bits.ADON = 0;
  2527  0307  101F               	bcf	31,0	;volatile
  2528                           
  2529                           ;Proyecto2.c: 454:             PORTBbits.RB1 = 1;
  2530  0308  1486               	bsf	6,1	;volatile
  2531  0309                     l1460:
  2532                           
  2533                           ;Proyecto2.c: 456:             lec1 = leer_EEP(0x10);
  2534  0309  3010               	movlw	16
  2535  030A  120A  118A  23D2  120A  118A  	fcall	_leer_EEP
  2536  030F  1283               	bcf	3,5	;RP0=0, select bank0
  2537  0310  1303               	bcf	3,6	;RP1=0, select bank0
  2538  0311  00A8               	movwf	??_comunicacioneu
  2539  0312  0828               	movf	??_comunicacioneu,w
  2540  0313  00FA               	movwf	_lec1
  2541                           
  2542                           ;Proyecto2.c: 457:             lec2 = leer_EEP(0x11);
  2543  0314  3011               	movlw	17
  2544  0315  120A  118A  23D2  120A  118A  	fcall	_leer_EEP
  2545  031A  1283               	bcf	3,5	;RP0=0, select bank0
  2546  031B  1303               	bcf	3,6	;RP1=0, select bank0
  2547  031C  00A8               	movwf	??_comunicacioneu
  2548  031D  0828               	movf	??_comunicacioneu,w
  2549  031E  00F9               	movwf	_lec2
  2550  031F                     l1462:
  2551                           
  2552                           ;Proyecto2.c: 459:             CCPR1L = (lec1 >> 1) + 125;
  2553  031F  087A               	movf	_lec1,w
  2554  0320  00A8               	movwf	??_comunicacioneu
  2555  0321  1003               	clrc
  2556  0322  0C28               	rrf	??_comunicacioneu,w
  2557  0323  3E7D               	addlw	125
  2558  0324  0095               	movwf	21	;volatile
  2559  0325                     l1464:
  2560                           
  2561                           ;Proyecto2.c: 460:             CCPR2L = (lec2 >> 1) + 125;
  2562  0325  0879               	movf	_lec2,w
  2563  0326  00A8               	movwf	??_comunicacioneu
  2564  0327  1003               	clrc
  2565  0328  0C28               	rrf	??_comunicacioneu,w
  2566  0329  3E7D               	addlw	125
  2567  032A  009B               	movwf	27	;volatile
  2568  032B                     l1466:
  2569                           
  2570                           ;Proyecto2.c: 462:             _delay((unsigned long)((2500)*(8000000/4000.0)));
  2571  032B  301A               	movlw	26
  2572  032C  1283               	bcf	3,5	;RP0=0, select bank0
  2573  032D  1303               	bcf	3,6	;RP1=0, select bank0
  2574  032E  00AA               	movwf	??_comunicacioneu+2
  2575  032F  305E               	movlw	94
  2576  0330  00A9               	movwf	??_comunicacioneu+1
  2577  0331  306D               	movlw	109
  2578  0332  00A8               	movwf	??_comunicacioneu
  2579  0333                     u1187:
  2580  0333  0BA8               	decfsz	??_comunicacioneu,f
  2581  0334  2B33               	goto	u1187
  2582  0335  0BA9               	decfsz	??_comunicacioneu+1,f
  2583  0336  2B33               	goto	u1187
  2584  0337  0BAA               	decfsz	??_comunicacioneu+2,f
  2585  0338  2B33               	goto	u1187
  2586  0339  2B3A               	nop2
  2587  033A                     l1468:
  2588                           
  2589                           ;Proyecto2.c: 463:             ADCON0bits.ADON = 1;
  2590  033A  1283               	bcf	3,5	;RP0=0, select bank0
  2591  033B  1303               	bcf	3,6	;RP1=0, select bank0
  2592  033C  141F               	bsf	31,0	;volatile
  2593  033D                     l1470:
  2594                           
  2595                           ;Proyecto2.c: 464:             PORTBbits.RB1 = 0;
  2596  033D  1086               	bcf	6,1	;volatile
  2597                           
  2598                           ;Proyecto2.c: 465:         }
  2599  033E  2B62               	goto	l236
  2600  033F                     l1472:
  2601  033F  3033               	movlw	51
  2602  0340  061A               	xorwf	26,w	;volatile
  2603  0341  1D03               	btfss	3,2
  2604  0342  2B44               	goto	u741
  2605  0343  2B45               	goto	u740
  2606  0344                     u741:
  2607  0344  2B62               	goto	l236
  2608  0345                     u740:
  2609  0345                     l1474:
  2610                           
  2611                           ;Proyecto2.c: 474:         _delay((unsigned long)((500)*(8000000/4000.0)));
  2612  0345  3006               	movlw	6
  2613  0346  1283               	bcf	3,5	;RP0=0, select bank0
  2614  0347  1303               	bcf	3,6	;RP1=0, select bank0
  2615  0348  00AA               	movwf	??_comunicacioneu+2
  2616  0349  3013               	movlw	19
  2617  034A  00A9               	movwf	??_comunicacioneu+1
  2618  034B  30AD               	movlw	173
  2619  034C  00A8               	movwf	??_comunicacioneu
  2620  034D                     u1197:
  2621  034D  0BA8               	decfsz	??_comunicacioneu,f
  2622  034E  2B4D               	goto	u1197
  2623  034F  0BA9               	decfsz	??_comunicacioneu+1,f
  2624  0350  2B4D               	goto	u1197
  2625  0351  0BAA               	decfsz	??_comunicacioneu+2,f
  2626  0352  2B4D               	goto	u1197
  2627  0353                     l1476:
  2628                           
  2629                           ;Proyecto2.c: 475:         printf("\r\r NOS VEMOS EN LA PROXIMA\r");
  2630  0353  3004               	movlw	low (STR_24| (0+32768))
  2631  0354  1283               	bcf	3,5	;RP0=0, select bank0
  2632  0355  1303               	bcf	3,6	;RP1=0, select bank0
  2633  0356  00A1               	movwf	printf@f
  2634  0357  3085               	movlw	high (STR_24| (0+32768))
  2635  0358  00A2               	movwf	printf@f+1
  2636  0359  120A  118A  27BA  120A  118A  	fcall	_printf
  2637  035E                     l1478:
  2638                           
  2639                           ;Proyecto2.c: 476:         bandera = 0;
  2640  035E  01F8               	clrf	_bandera
  2641  035F                     l1480:
  2642                           
  2643                           ;Proyecto2.c: 477:         PORTBbits.RB5 = 0;
  2644  035F  1283               	bcf	3,5	;RP0=0, select bank0
  2645  0360  1303               	bcf	3,6	;RP1=0, select bank0
  2646  0361  1286               	bcf	6,5	;volatile
  2647  0362                     l236:	
  2648                           ;Proyecto2.c: 478:     }
  2649                           
  2650  0362  0008               	return
  2651  0363                     __end_of_comunicacioneu:
  2652                           
  2653                           	psect	text3
  2654  07BA                     __ptext3:	
  2655 ;; *************** function _printf *****************
  2656 ;; Defined at:
  2657 ;;		line 477 in file "C:\Program Files\Microchip\xc8\v2.31\pic\sources\c90\common\doprnt.c"
  2658 ;; Parameters:    Size  Location     Type
  2659 ;;  f               2    1[BANK0 ] PTR const unsigned char 
  2660 ;;		 -> STR_24(28), STR_23(11), STR_22(13), STR_21(40), 
  2661 ;;		 -> STR_20(19), STR_19(18), STR_18(22), STR_17(50), 
  2662 ;;		 -> STR_16(13), STR_15(12), STR_14(13), STR_13(38), 
  2663 ;;		 -> STR_12(13), STR_11(16), STR_10(14), STR_9(42), 
  2664 ;;		 -> STR_8(15), STR_7(19), STR_6(19), STR_5(29), 
  2665 ;;		 -> STR_4(19), STR_3(30), STR_2(18), STR_1(31), 
  2666 ;; Auto vars:     Size  Location     Type
  2667 ;;  tmpval          4    0        struct .
  2668 ;;  cp              2    0        PTR const unsigned char 
  2669 ;;  len             2    0        unsigned int 
  2670 ;;  val             2    0        unsigned int 
  2671 ;;  c               1    7[BANK0 ] unsigned char 
  2672 ;;  ap              1    6[BANK0 ] PTR void [1]
  2673 ;;		 -> ?_printf(2), 
  2674 ;;  flag            1    0        unsigned char 
  2675 ;;  prec            1    0        char 
  2676 ;; Return value:  Size  Location     Type
  2677 ;;                  2    1[BANK0 ] int 
  2678 ;; Registers used:
  2679 ;;		wreg, fsr0l, fsr0h, status,2, status,0, btemp+1, pclath, cstack
  2680 ;; Tracked objects:
  2681 ;;		On entry : 0/0
  2682 ;;		On exit  : 0/0
  2683 ;;		Unchanged: 0/0
  2684 ;; Data sizes:     COMMON   BANK0   BANK1   BANK3   BANK2
  2685 ;;      Params:         0       2       0       0       0
  2686 ;;      Locals:         0       2       0       0       0
  2687 ;;      Temps:          0       3       0       0       0
  2688 ;;      Totals:         0       7       0       0       0
  2689 ;;Total ram usage:        7 bytes
  2690 ;; Hardware stack levels used:    1
  2691 ;; Hardware stack levels required when called:    3
  2692 ;; This function calls:
  2693 ;;		_putch
  2694 ;; This function is called by:
  2695 ;;		_comunicacioneu
  2696 ;; This function uses a non-reentrant model
  2697 ;;
  2698                           
  2699                           
  2700                           ;psect for function _printf
  2701  07BA                     _printf:
  2702  07BA                     l1240:	
  2703                           ;incstack = 0
  2704                           ; Regs used in _printf: [wreg-fsr0h+status,2+status,0+btemp+1+pclath+cstack]
  2705                           
  2706                           
  2707                           ;C:\Program Files\Microchip\xc8\v2.31\pic\sources\c90\common\doprnt.c: 477: printf(const
      +                           char * f, ...);C:\Program Files\Microchip\xc8\v2.31\pic\sources\c90\common\doprnt.c: 47
      +                          8: {;C:\Program Files\Microchip\xc8\v2.31\pic\sources\c90\common\doprnt.c: 479:  va_list
      +                           ap;;C:\Program Files\Microchip\xc8\v2.31\pic\sources\c90\common\doprnt.c: 512:  char c;
      +                          ;C:\Program Files\Microchip\xc8\v2.31\pic\sources\c90\common\doprnt.c: 521:  signed char
      +                           prec;;C:\Program Files\Microchip\xc8\v2.31\pic\sources\c90\common\doprnt.c: 525:  unsig
      +                          ned char flag;
  2708  07BA  3023               	movlw	(low ((?_printf| 0+2)))& (0+255)
  2709  07BB  1283               	bcf	3,5	;RP0=0, select bank0
  2710  07BC  1303               	bcf	3,6	;RP1=0, select bank0
  2711  07BD  00A3               	movwf	??_printf
  2712  07BE  0823               	movf	??_printf,w
  2713  07BF  00A6               	movwf	printf@ap
  2714                           
  2715                           ;C:\Program Files\Microchip\xc8\v2.31\pic\sources\c90\common\doprnt.c: 553:  while((c = 
      +                          *f++)) {
  2716  07C0  2FC7               	goto	l1244
  2717  07C1                     l1242:
  2718                           
  2719                           ;C:\Program Files\Microchip\xc8\v2.31\pic\sources\c90\common\doprnt.c: 557:   {;C:\Progr
      +                          am Files\Microchip\xc8\v2.31\pic\sources\c90\common\doprnt.c: 558:    (putch(c) );
  2720  07C1  0827               	movf	printf@c,w
  2721  07C2  120A  158A  27E5  120A  118A  	fcall	_putch
  2722  07C7                     l1244:	
  2723                           ;C:\Program Files\Microchip\xc8\v2.31\pic\sources\c90\common\doprnt.c: 559:    continue;
  2724                           
  2725                           
  2726                           ;C:\Program Files\Microchip\xc8\v2.31\pic\sources\c90\common\doprnt.c: 553:  while((c = 
      +                          *f++)) {
  2727  07C7  1283               	bcf	3,5	;RP0=0, select bank0
  2728  07C8  1303               	bcf	3,6	;RP1=0, select bank0
  2729  07C9  0822               	movf	printf@f+1,w
  2730  07CA  00A4               	movwf	??_printf+1
  2731  07CB  0821               	movf	printf@f,w
  2732  07CC  00A3               	movwf	??_printf
  2733  07CD  0AA1               	incf	printf@f,f
  2734  07CE  1903               	skipnz
  2735  07CF  0AA2               	incf	printf@f+1,f
  2736  07D0  0824               	movf	??_printf+1,w
  2737  07D1  00FF               	movwf	btemp+1
  2738  07D2  0823               	movf	??_printf,w
  2739  07D3  0084               	movwf	4
  2740  07D4  120A  118A  23E7  120A  118A  	fcall	stringtab
  2741  07D9  00A5               	movwf	??_printf+2
  2742  07DA  0825               	movf	??_printf+2,w
  2743  07DB  00A7               	movwf	printf@c
  2744  07DC  0827               	movf	printf@c,w
  2745  07DD  1D03               	btfss	3,2
  2746  07DE  2FE0               	goto	u501
  2747  07DF  2FE1               	goto	u500
  2748  07E0                     u501:
  2749  07E0  2FC1               	goto	l1242
  2750  07E1                     u500:
  2751  07E1                     l328:
  2752  07E1  0008               	return
  2753  07E2                     __end_of_printf:
  2754                           
  2755                           	psect	text4
  2756  0FE5                     __ptext4:	
  2757 ;; *************** function _putch *****************
  2758 ;; Defined at:
  2759 ;;		line 311 in file "Proyecto2.c"
  2760 ;; Parameters:    Size  Location     Type
  2761 ;;  dt              1    wreg     unsigned char 
  2762 ;; Auto vars:     Size  Location     Type
  2763 ;;  dt              1    0[BANK0 ] unsigned char 
  2764 ;; Return value:  Size  Location     Type
  2765 ;;                  1    wreg      void 
  2766 ;; Registers used:
  2767 ;;		wreg
  2768 ;; Tracked objects:
  2769 ;;		On entry : 0/0
  2770 ;;		On exit  : 0/0
  2771 ;;		Unchanged: 0/0
  2772 ;; Data sizes:     COMMON   BANK0   BANK1   BANK3   BANK2
  2773 ;;      Params:         0       0       0       0       0
  2774 ;;      Locals:         0       1       0       0       0
  2775 ;;      Temps:          0       0       0       0       0
  2776 ;;      Totals:         0       1       0       0       0
  2777 ;;Total ram usage:        1 bytes
  2778 ;; Hardware stack levels used:    1
  2779 ;; Hardware stack levels required when called:    2
  2780 ;; This function calls:
  2781 ;;		Nothing
  2782 ;; This function is called by:
  2783 ;;		_printf
  2784 ;; This function uses a non-reentrant model
  2785 ;;
  2786                           
  2787                           
  2788                           ;psect for function _putch
  2789  0FE5                     _putch:
  2790                           
  2791                           ;incstack = 0
  2792                           ; Regs used in _putch: [wreg]
  2793                           ;putch@dt stored from wreg
  2794  0FE5  1283               	bcf	3,5	;RP0=0, select bank0
  2795  0FE6  1303               	bcf	3,6	;RP1=0, select bank0
  2796  0FE7  00A0               	movwf	putch@dt
  2797  0FE8                     l1216:
  2798  0FE8                     l181:	
  2799                           ;Proyecto2.c: 312:     while (TXIF == 0);
  2800                           
  2801  0FE8  1E0C               	btfss	12,4	;volatile
  2802  0FE9  2FEB               	goto	u481
  2803  0FEA  2FEC               	goto	u480
  2804  0FEB                     u481:
  2805  0FEB  2FE8               	goto	l181
  2806  0FEC                     u480:
  2807  0FEC                     l1218:
  2808                           
  2809                           ;Proyecto2.c: 313:     TXREG = dt;
  2810  0FEC  0820               	movf	putch@dt,w
  2811  0FED  0099               	movwf	25	;volatile
  2812  0FEE                     l184:
  2813  0FEE  0008               	return
  2814  0FEF                     __end_of_putch:
  2815                           
  2816                           	psect	text5
  2817  03D2                     __ptext5:	
  2818 ;; *************** function _leer_EEP *****************
  2819 ;; Defined at:
  2820 ;;		line 171 in file "Proyecto2.c"
  2821 ;; Parameters:    Size  Location     Type
  2822 ;;  direc           1    wreg     unsigned char 
  2823 ;; Auto vars:     Size  Location     Type
  2824 ;;  direc           1    1[BANK0 ] unsigned char 
  2825 ;;  data            1    2[BANK0 ] unsigned char 
  2826 ;; Return value:  Size  Location     Type
  2827 ;;                  1    wreg      unsigned char 
  2828 ;; Registers used:
  2829 ;;		wreg
  2830 ;; Tracked objects:
  2831 ;;		On entry : 0/0
  2832 ;;		On exit  : 0/0
  2833 ;;		Unchanged: 0/0
  2834 ;; Data sizes:     COMMON   BANK0   BANK1   BANK3   BANK2
  2835 ;;      Params:         0       0       0       0       0
  2836 ;;      Locals:         0       2       0       0       0
  2837 ;;      Temps:          0       1       0       0       0
  2838 ;;      Totals:         0       3       0       0       0
  2839 ;;Total ram usage:        3 bytes
  2840 ;; Hardware stack levels used:    1
  2841 ;; Hardware stack levels required when called:    2
  2842 ;; This function calls:
  2843 ;;		Nothing
  2844 ;; This function is called by:
  2845 ;;		_comunicacioneu
  2846 ;; This function uses a non-reentrant model
  2847 ;;
  2848                           
  2849                           
  2850                           ;psect for function _leer_EEP
  2851  03D2                     _leer_EEP:
  2852                           
  2853                           ;incstack = 0
  2854                           ; Regs used in _leer_EEP: [wreg]
  2855                           ;leer_EEP@direc stored from wreg
  2856  03D2  1283               	bcf	3,5	;RP0=0, select bank0
  2857  03D3  1303               	bcf	3,6	;RP1=0, select bank0
  2858  03D4  00A1               	movwf	leer_EEP@direc
  2859  03D5                     l1222:
  2860                           
  2861                           ;Proyecto2.c: 172:     EEADR = direc;
  2862  03D5  0821               	movf	leer_EEP@direc,w
  2863  03D6  1283               	bcf	3,5	;RP0=0, select bank2
  2864  03D7  1703               	bsf	3,6	;RP1=1, select bank2
  2865  03D8  008D               	movwf	13	;volatile
  2866  03D9                     l1224:
  2867                           
  2868                           ;Proyecto2.c: 173:     EECON1bits.EEPGD = 0;
  2869  03D9  1683               	bsf	3,5	;RP0=1, select bank3
  2870  03DA  1703               	bsf	3,6	;RP1=1, select bank3
  2871  03DB  138C               	bcf	12,7	;volsfr
  2872  03DC                     l1226:
  2873                           
  2874                           ;Proyecto2.c: 174:     EECON1bits.RD = 1;
  2875  03DC  140C               	bsf	12,0	;volsfr
  2876                           
  2877                           ;Proyecto2.c: 175:     char data = EEDAT;
  2878  03DD  1283               	bcf	3,5	;RP0=0, select bank2
  2879  03DE  1703               	bsf	3,6	;RP1=1, select bank2
  2880  03DF  080C               	movf	12,w	;volatile
  2881  03E0  1283               	bcf	3,5	;RP0=0, select bank0
  2882  03E1  1303               	bcf	3,6	;RP1=0, select bank0
  2883  03E2  00A0               	movwf	??_leer_EEP
  2884  03E3  0820               	movf	??_leer_EEP,w
  2885  03E4  00A2               	movwf	leer_EEP@data
  2886                           
  2887                           ;Proyecto2.c: 176:     return data;
  2888  03E5  0822               	movf	leer_EEP@data,w
  2889  03E6                     l157:
  2890  03E6  0008               	return
  2891  03E7                     __end_of_leer_EEP:
  2892                           
  2893                           	psect	text6
  2894  03B0                     __ptext6:	
  2895 ;; *************** function _esc_EEP *****************
  2896 ;; Defined at:
  2897 ;;		line 147 in file "Proyecto2.c"
  2898 ;; Parameters:    Size  Location     Type
  2899 ;;  data            1    wreg     unsigned char 
  2900 ;;  direc           1    0[BANK0 ] unsigned char 
  2901 ;; Auto vars:     Size  Location     Type
  2902 ;;  data            1    1[BANK0 ] unsigned char 
  2903 ;; Return value:  Size  Location     Type
  2904 ;;                  1    wreg      void 
  2905 ;; Registers used:
  2906 ;;		wreg
  2907 ;; Tracked objects:
  2908 ;;		On entry : 0/0
  2909 ;;		On exit  : 0/0
  2910 ;;		Unchanged: 0/0
  2911 ;; Data sizes:     COMMON   BANK0   BANK1   BANK3   BANK2
  2912 ;;      Params:         0       1       0       0       0
  2913 ;;      Locals:         0       1       0       0       0
  2914 ;;      Temps:          0       0       0       0       0
  2915 ;;      Totals:         0       2       0       0       0
  2916 ;;Total ram usage:        2 bytes
  2917 ;; Hardware stack levels used:    1
  2918 ;; Hardware stack levels required when called:    2
  2919 ;; This function calls:
  2920 ;;		Nothing
  2921 ;; This function is called by:
  2922 ;;		_comunicacioneu
  2923 ;; This function uses a non-reentrant model
  2924 ;;
  2925                           
  2926                           
  2927                           ;psect for function _esc_EEP
  2928  03B0                     _esc_EEP:
  2929                           
  2930                           ;incstack = 0
  2931                           ; Regs used in _esc_EEP: [wreg]
  2932                           ;esc_EEP@data stored from wreg
  2933  03B0  1283               	bcf	3,5	;RP0=0, select bank0
  2934  03B1  1303               	bcf	3,6	;RP1=0, select bank0
  2935  03B2  00A1               	movwf	esc_EEP@data
  2936  03B3                     l1230:
  2937                           
  2938                           ;Proyecto2.c: 148:     EEADR = direc;
  2939  03B3  0820               	movf	esc_EEP@direc,w
  2940  03B4  1283               	bcf	3,5	;RP0=0, select bank2
  2941  03B5  1703               	bsf	3,6	;RP1=1, select bank2
  2942  03B6  008D               	movwf	13	;volatile
  2943                           
  2944                           ;Proyecto2.c: 149:     EEDAT = data;
  2945  03B7  1283               	bcf	3,5	;RP0=0, select bank0
  2946  03B8  1303               	bcf	3,6	;RP1=0, select bank0
  2947  03B9  0821               	movf	esc_EEP@data,w
  2948  03BA  1283               	bcf	3,5	;RP0=0, select bank2
  2949  03BB  1703               	bsf	3,6	;RP1=1, select bank2
  2950  03BC  008C               	movwf	12	;volatile
  2951  03BD                     l1232:
  2952                           
  2953                           ;Proyecto2.c: 151:     INTCONbits.GIE = 0;
  2954  03BD  138B               	bcf	11,7	;volatile
  2955  03BE                     l1234:
  2956                           
  2957                           ;Proyecto2.c: 153:     EECON1bits.EEPGD = 0;
  2958  03BE  1683               	bsf	3,5	;RP0=1, select bank3
  2959  03BF  1703               	bsf	3,6	;RP1=1, select bank3
  2960  03C0  138C               	bcf	12,7	;volsfr
  2961  03C1                     l1236:
  2962                           
  2963                           ;Proyecto2.c: 154:     EECON1bits.WREN = 1;
  2964  03C1  150C               	bsf	12,2	;volsfr
  2965                           
  2966                           ;Proyecto2.c: 156:     EECON2 = 0x55;
  2967  03C2  3055               	movlw	85
  2968  03C3  008D               	movwf	13	;volsfr
  2969                           
  2970                           ;Proyecto2.c: 157:     EECON2 = 0xAA;
  2971  03C4  30AA               	movlw	170
  2972  03C5  008D               	movwf	13	;volsfr
  2973  03C6                     l1238:
  2974                           
  2975                           ;Proyecto2.c: 159:     EECON1bits.WR = 1;
  2976  03C6  148C               	bsf	12,1	;volsfr
  2977  03C7                     l151:	
  2978                           ;Proyecto2.c: 161:     while(PIR2bits.EEIF == 0);
  2979                           
  2980  03C7  1283               	bcf	3,5	;RP0=0, select bank0
  2981  03C8  1303               	bcf	3,6	;RP1=0, select bank0
  2982  03C9  1E0D               	btfss	13,4	;volatile
  2983  03CA  2BCC               	goto	u491
  2984  03CB  2BCD               	goto	u490
  2985  03CC                     u491:
  2986  03CC  2BC7               	goto	l151
  2987  03CD                     u490:
  2988  03CD                     l153:
  2989                           
  2990                           ;Proyecto2.c: 162:     PIR2bits.EEIF = 0;
  2991  03CD  120D               	bcf	13,4	;volatile
  2992                           
  2993                           ;Proyecto2.c: 165:     EECON1bits.WREN = 0;
  2994  03CE  1683               	bsf	3,5	;RP0=1, select bank3
  2995  03CF  1703               	bsf	3,6	;RP1=1, select bank3
  2996  03D0  110C               	bcf	12,2	;volsfr
  2997  03D1                     l154:
  2998  03D1  0008               	return
  2999  03D2                     __end_of_esc_EEP:
  3000                           
  3001                           	psect	text7
  3002  0611                     __ptext7:	
  3003 ;; *************** function _ISR *****************
  3004 ;; Defined at:
  3005 ;;		line 57 in file "Proyecto2.c"
  3006 ;; Parameters:    Size  Location     Type
  3007 ;;		None
  3008 ;; Auto vars:     Size  Location     Type
  3009 ;;		None
  3010 ;; Return value:  Size  Location     Type
  3011 ;;                  1    wreg      void 
  3012 ;; Registers used:
  3013 ;;		wreg, status,2, status,0, pclath, cstack
  3014 ;; Tracked objects:
  3015 ;;		On entry : 0/0
  3016 ;;		On exit  : 0/0
  3017 ;;		Unchanged: 0/0
  3018 ;; Data sizes:     COMMON   BANK0   BANK1   BANK3   BANK2
  3019 ;;      Params:         0       0       0       0       0
  3020 ;;      Locals:         0       0       0       0       0
  3021 ;;      Temps:          5       0       0       0       0
  3022 ;;      Totals:         5       0       0       0       0
  3023 ;;Total ram usage:        5 bytes
  3024 ;; Hardware stack levels used:    1
  3025 ;; Hardware stack levels required when called:    1
  3026 ;; This function calls:
  3027 ;;		i1_esc_EEP
  3028 ;;		i1_leer_EEP
  3029 ;; This function is called by:
  3030 ;;		Interrupt level 1
  3031 ;; This function uses a non-reentrant model
  3032 ;;
  3033                           
  3034                           
  3035                           ;psect for function _ISR
  3036  0611                     _ISR:
  3037  0611                     i1l1500:
  3038                           
  3039                           ;Proyecto2.c: 58:     if (PIR1bits.ADIF){
  3040  0611  1283               	bcf	3,5	;RP0=0, select bank0
  3041  0612  1303               	bcf	3,6	;RP1=0, select bank0
  3042  0613  1F0C               	btfss	12,6	;volatile
  3043  0614  2E16               	goto	u76_21
  3044  0615  2E17               	goto	u76_20
  3045  0616                     u76_21:
  3046  0616  2E84               	goto	i1l1528
  3047  0617                     u76_20:
  3048  0617                     i1l1502:
  3049                           
  3050                           ;Proyecto2.c: 59:         if(ADCON0bits.CHS == 0){
  3051  0617  0C1F               	rrf	31,w	;volatile
  3052  0618  00F3               	movwf	??_ISR
  3053  0619  0C73               	rrf	??_ISR,w
  3054  061A  390F               	andlw	15
  3055  061B  3A00               	xorlw	0
  3056  061C  1D03               	skipz
  3057  061D  2E1F               	goto	u77_21
  3058  061E  2E20               	goto	u77_20
  3059  061F                     u77_21:
  3060  061F  2E45               	goto	i1l1512
  3061  0620                     u77_20:
  3062  0620                     i1l1504:
  3063                           
  3064                           ;Proyecto2.c: 60:             sm1 = ADRESH;
  3065  0620  081E               	movf	30,w	;volatile
  3066  0621  00F3               	movwf	??_ISR
  3067  0622  0873               	movf	??_ISR,w
  3068  0623  00FD               	movwf	_sm1
  3069  0624                     i1l1506:
  3070                           
  3071                           ;Proyecto2.c: 62:             CCPR1L = (sm1 >> 1)+127;
  3072  0624  087D               	movf	_sm1,w
  3073  0625  00F3               	movwf	??_ISR
  3074  0626  1003               	clrc
  3075  0627  0C73               	rrf	??_ISR,w
  3076  0628  3E7F               	addlw	127
  3077  0629  0095               	movwf	21	;volatile
  3078  062A                     i1l1508:
  3079                           
  3080                           ;Proyecto2.c: 63:             CCP1CONbits.DC1B1 = sm1 & 0b01;
  3081  062A  087D               	movf	_sm1,w
  3082  062B  3901               	andlw	1
  3083  062C  00F3               	movwf	??_ISR
  3084  062D  0EF3               	swapf	??_ISR,f
  3085  062E  0DF3               	rlf	??_ISR,f
  3086  062F  0817               	movf	23,w	;volatile
  3087  0630  0673               	xorwf	??_ISR,w
  3088  0631  39DF               	andlw	-33
  3089  0632  0673               	xorwf	??_ISR,w
  3090  0633  0097               	movwf	23	;volatile
  3091  0634                     i1l1510:
  3092                           
  3093                           ;Proyecto2.c: 64:             CCP1CONbits.DC1B0 = (sm1 >> 7);
  3094  0634  087D               	movf	_sm1,w
  3095  0635  00F3               	movwf	??_ISR
  3096  0636  3007               	movlw	7
  3097  0637                     u78_25:
  3098  0637  1003               	clrc
  3099  0638  0CF3               	rrf	??_ISR,f
  3100  0639  3EFF               	addlw	-1
  3101  063A  1D03               	skipz
  3102  063B  2E37               	goto	u78_25
  3103  063C  0873               	movf	??_ISR,w
  3104  063D  00F4               	movwf	??_ISR+1
  3105  063E  0EF4               	swapf	??_ISR+1,f
  3106  063F  0817               	movf	23,w	;volatile
  3107  0640  0674               	xorwf	??_ISR+1,w
  3108  0641  39EF               	andlw	-17
  3109  0642  0674               	xorwf	??_ISR+1,w
  3110  0643  0097               	movwf	23	;volatile
  3111                           
  3112                           ;Proyecto2.c: 67:         }
  3113  0644  2E83               	goto	i1l1526
  3114  0645                     i1l1512:
  3115  0645  0C1F               	rrf	31,w	;volatile
  3116  0646  00F3               	movwf	??_ISR
  3117  0647  0C73               	rrf	??_ISR,w
  3118  0648  390F               	andlw	15
  3119  0649  3A01               	xorlw	1
  3120  064A  1D03               	skipz
  3121  064B  2E4D               	goto	u79_21
  3122  064C  2E4E               	goto	u79_20
  3123  064D                     u79_21:
  3124  064D  2E73               	goto	i1l1522
  3125  064E                     u79_20:
  3126  064E                     i1l1514:
  3127                           
  3128                           ;Proyecto2.c: 69:             sm2 = ADRESH;
  3129  064E  081E               	movf	30,w	;volatile
  3130  064F  00F3               	movwf	??_ISR
  3131  0650  0873               	movf	??_ISR,w
  3132  0651  00FC               	movwf	_sm2
  3133  0652                     i1l1516:
  3134                           
  3135                           ;Proyecto2.c: 71:             CCPR2L = (sm2 >> 1)+127;
  3136  0652  087C               	movf	_sm2,w
  3137  0653  00F3               	movwf	??_ISR
  3138  0654  1003               	clrc
  3139  0655  0C73               	rrf	??_ISR,w
  3140  0656  3E7F               	addlw	127
  3141  0657  009B               	movwf	27	;volatile
  3142  0658                     i1l1518:
  3143                           
  3144                           ;Proyecto2.c: 72:             CCP2CONbits.DC2B1 = sm2 & 0b01;
  3145  0658  087C               	movf	_sm2,w
  3146  0659  3901               	andlw	1
  3147  065A  00F3               	movwf	??_ISR
  3148  065B  0EF3               	swapf	??_ISR,f
  3149  065C  0DF3               	rlf	??_ISR,f
  3150  065D  081D               	movf	29,w	;volatile
  3151  065E  0673               	xorwf	??_ISR,w
  3152  065F  39DF               	andlw	-33
  3153  0660  0673               	xorwf	??_ISR,w
  3154  0661  009D               	movwf	29	;volatile
  3155  0662                     i1l1520:
  3156                           
  3157                           ;Proyecto2.c: 73:             CCP2CONbits.DC2B0 = (sm2 >> 7);
  3158  0662  087C               	movf	_sm2,w
  3159  0663  00F3               	movwf	??_ISR
  3160  0664  3007               	movlw	7
  3161  0665                     u80_25:
  3162  0665  1003               	clrc
  3163  0666  0CF3               	rrf	??_ISR,f
  3164  0667  3EFF               	addlw	-1
  3165  0668  1D03               	skipz
  3166  0669  2E65               	goto	u80_25
  3167  066A  0873               	movf	??_ISR,w
  3168  066B  00F4               	movwf	??_ISR+1
  3169  066C  0EF4               	swapf	??_ISR+1,f
  3170  066D  081D               	movf	29,w	;volatile
  3171  066E  0674               	xorwf	??_ISR+1,w
  3172  066F  39EF               	andlw	-17
  3173  0670  0674               	xorwf	??_ISR+1,w
  3174  0671  009D               	movwf	29	;volatile
  3175                           
  3176                           ;Proyecto2.c: 74:         }
  3177  0672  2E83               	goto	i1l1526
  3178  0673                     i1l1522:
  3179  0673  0C1F               	rrf	31,w	;volatile
  3180  0674  00F3               	movwf	??_ISR
  3181  0675  0C73               	rrf	??_ISR,w
  3182  0676  390F               	andlw	15
  3183  0677  3A02               	xorlw	2
  3184  0678  1D03               	skipz
  3185  0679  2E7B               	goto	u81_21
  3186  067A  2E7C               	goto	u81_20
  3187  067B                     u81_21:
  3188  067B  2E83               	goto	i1l1526
  3189  067C                     u81_20:
  3190  067C                     i1l1524:
  3191                           
  3192                           ;Proyecto2.c: 76:            motor = (ADRESH);
  3193  067C  081E               	movf	30,w	;volatile
  3194  067D  00F3               	movwf	??_ISR
  3195  067E  01F4               	clrf	??_ISR+1
  3196  067F  0873               	movf	??_ISR,w
  3197  0680  00AE               	movwf	_motor
  3198  0681  0874               	movf	??_ISR+1,w
  3199  0682  00AF               	movwf	_motor+1
  3200  0683                     i1l1526:
  3201                           
  3202                           ;Proyecto2.c: 80:         PIR1bits.ADIF = 0;
  3203  0683  130C               	bcf	12,6	;volatile
  3204  0684                     i1l1528:
  3205                           
  3206                           ;Proyecto2.c: 82:     if (RBIF ==1)
  3207  0684  1C0B               	btfss	11,0	;volatile
  3208  0685  2E87               	goto	u82_21
  3209  0686  2E88               	goto	u82_20
  3210  0687                     u82_21:
  3211  0687  2EF9               	goto	i1l135
  3212  0688                     u82_20:
  3213  0688                     i1l1530:
  3214                           
  3215                           ;Proyecto2.c: 83:     {;Proyecto2.c: 84:         if (PORTBbits.RB1 == 0){
  3216  0688  1886               	btfsc	6,1	;volatile
  3217  0689  2E8B               	goto	u83_21
  3218  068A  2E8C               	goto	u83_20
  3219  068B                     u83_21:
  3220  068B  2EBF               	goto	i1l136
  3221  068C                     u83_20:
  3222  068C                     i1l1532:
  3223                           
  3224                           ;Proyecto2.c: 85:             ADCON0bits.ADON = 0;
  3225  068C  101F               	bcf	31,0	;volatile
  3226                           
  3227                           ;Proyecto2.c: 86:             PORTBbits.RB6 = 1;
  3228  068D  1706               	bsf	6,6	;volatile
  3229  068E                     i1l1534:
  3230                           
  3231                           ;Proyecto2.c: 87:             lec1 = leer_EEP (0x17);
  3232  068E  3017               	movlw	23
  3233  068F  120A  158A  27EF  120A  118A  	fcall	i1_leer_EEP
  3234  0694  00F3               	movwf	??_ISR
  3235  0695  0873               	movf	??_ISR,w
  3236  0696  00FA               	movwf	_lec1
  3237                           
  3238                           ;Proyecto2.c: 88:             lec2 = leer_EEP (0x18);
  3239  0697  3018               	movlw	24
  3240  0698  120A  158A  27EF  120A  118A  	fcall	i1_leer_EEP
  3241  069D  00F3               	movwf	??_ISR
  3242  069E  0873               	movf	??_ISR,w
  3243  069F  00F9               	movwf	_lec2
  3244  06A0                     i1l1536:
  3245                           
  3246                           ;Proyecto2.c: 91:             CCPR1L = (lec1 >> 1)+127;
  3247  06A0  087A               	movf	_lec1,w
  3248  06A1  00F3               	movwf	??_ISR
  3249  06A2  1003               	clrc
  3250  06A3  0C73               	rrf	??_ISR,w
  3251  06A4  3E7F               	addlw	127
  3252  06A5  1283               	bcf	3,5	;RP0=0, select bank0
  3253  06A6  1303               	bcf	3,6	;RP1=0, select bank0
  3254  06A7  0095               	movwf	21	;volatile
  3255  06A8                     i1l1538:
  3256                           
  3257                           ;Proyecto2.c: 92:             CCPR2L = (lec2 >> 1)+127;
  3258  06A8  0879               	movf	_lec2,w
  3259  06A9  00F3               	movwf	??_ISR
  3260  06AA  1003               	clrc
  3261  06AB  0C73               	rrf	??_ISR,w
  3262  06AC  3E7F               	addlw	127
  3263  06AD  009B               	movwf	27	;volatile
  3264  06AE                     i1l1540:
  3265                           
  3266                           ;Proyecto2.c: 93:             _delay((unsigned long)((1000)*(8000000/4000.0)));
  3267  06AE  300B               	movlw	11
  3268  06AF  00F5               	movwf	??_ISR+2
  3269  06B0  3026               	movlw	38
  3270  06B1  00F4               	movwf	??_ISR+1
  3271  06B2  305D               	movlw	93
  3272  06B3  00F3               	movwf	??_ISR
  3273  06B4                     u120_27:
  3274  06B4  0BF3               	decfsz	??_ISR,f
  3275  06B5  2EB4               	goto	u120_27
  3276  06B6  0BF4               	decfsz	??_ISR+1,f
  3277  06B7  2EB4               	goto	u120_27
  3278  06B8  0BF5               	decfsz	??_ISR+2,f
  3279  06B9  2EB4               	goto	u120_27
  3280  06BA  2EBB               	nop2
  3281  06BB                     i1l1542:
  3282                           
  3283                           ;Proyecto2.c: 94:             ADCON0bits.ADON = 1;
  3284  06BB  1283               	bcf	3,5	;RP0=0, select bank0
  3285  06BC  1303               	bcf	3,6	;RP1=0, select bank0
  3286  06BD  141F               	bsf	31,0	;volatile
  3287                           
  3288                           ;Proyecto2.c: 97:         }
  3289  06BE  2EF8               	goto	i1l137
  3290  06BF                     i1l136:	
  3291                           ;Proyecto2.c: 98:         else if (PORTBbits.RB0 == 0){
  3292                           
  3293  06BF  1806               	btfsc	6,0	;volatile
  3294  06C0  2EC2               	goto	u84_21
  3295  06C1  2EC3               	goto	u84_20
  3296  06C2                     u84_21:
  3297  06C2  2EE6               	goto	i1l138
  3298  06C3                     u84_20:
  3299  06C3                     i1l1544:
  3300                           
  3301                           ;Proyecto2.c: 99:             PORTBbits.RB7 = 1;
  3302  06C3  1786               	bsf	6,7	;volatile
  3303  06C4                     i1l1546:
  3304                           
  3305                           ;Proyecto2.c: 100:             esc_EEP (sm1, 0x17);
  3306  06C4  3017               	movlw	23
  3307  06C5  00F3               	movwf	??_ISR
  3308  06C6  0873               	movf	??_ISR,w
  3309  06C7  00F0               	movwf	i1esc_EEP@direc
  3310  06C8  087D               	movf	_sm1,w
  3311  06C9  120A  118A  27E2  120A  118A  	fcall	i1_esc_EEP
  3312                           
  3313                           ;Proyecto2.c: 101:             esc_EEP (sm2, 0x18);
  3314  06CE  3018               	movlw	24
  3315  06CF  00F3               	movwf	??_ISR
  3316  06D0  0873               	movf	??_ISR,w
  3317  06D1  00F0               	movwf	i1esc_EEP@direc
  3318  06D2  087C               	movf	_sm2,w
  3319  06D3  120A  118A  27E2  120A  118A  	fcall	i1_esc_EEP
  3320  06D8                     i1l1548:
  3321                           
  3322                           ;Proyecto2.c: 103:             _delay((unsigned long)((1000)*(8000000/4000.0)));
  3323  06D8  300B               	movlw	11
  3324  06D9  00F5               	movwf	??_ISR+2
  3325  06DA  3026               	movlw	38
  3326  06DB  00F4               	movwf	??_ISR+1
  3327  06DC  305D               	movlw	93
  3328  06DD  00F3               	movwf	??_ISR
  3329  06DE                     u121_27:
  3330  06DE  0BF3               	decfsz	??_ISR,f
  3331  06DF  2EDE               	goto	u121_27
  3332  06E0  0BF4               	decfsz	??_ISR+1,f
  3333  06E1  2EDE               	goto	u121_27
  3334  06E2  0BF5               	decfsz	??_ISR+2,f
  3335  06E3  2EDE               	goto	u121_27
  3336  06E4  2EE5               	nop2
  3337                           
  3338                           ;Proyecto2.c: 105:         }
  3339  06E5  2EF8               	goto	i1l137
  3340  06E6                     i1l138:	
  3341                           ;Proyecto2.c: 106:         else if (PORTBbits.RB2 == 0) {
  3342                           
  3343  06E6  1906               	btfsc	6,2	;volatile
  3344  06E7  2EE9               	goto	u85_21
  3345  06E8  2EEA               	goto	u85_20
  3346  06E9                     u85_21:
  3347  06E9  2EF6               	goto	i1l140
  3348  06EA                     u85_20:
  3349  06EA                     i1l1550:
  3350                           
  3351                           ;Proyecto2.c: 108:             if (bandera == 0) {
  3352  06EA  0878               	movf	_bandera,w
  3353  06EB  1D03               	btfss	3,2
  3354  06EC  2EEE               	goto	u86_21
  3355  06ED  2EEF               	goto	u86_20
  3356  06EE                     u86_21:
  3357  06EE  2EF3               	goto	i1l141
  3358  06EF                     u86_20:
  3359  06EF                     i1l1552:
  3360                           
  3361                           ;Proyecto2.c: 109:                 PORTBbits.RB5 = 1;
  3362  06EF  1686               	bsf	6,5	;volatile
  3363                           
  3364                           ;Proyecto2.c: 110:                 bandera = 1;
  3365  06F0  01F8               	clrf	_bandera
  3366  06F1  0AF8               	incf	_bandera,f
  3367                           
  3368                           ;Proyecto2.c: 111:             }
  3369  06F2  2EF8               	goto	i1l137
  3370  06F3                     i1l141:	
  3371                           ;Proyecto2.c: 112:             else {
  3372                           
  3373                           
  3374                           ;Proyecto2.c: 113:                 PORTBbits.RB5 = 0;
  3375  06F3  1286               	bcf	6,5	;volatile
  3376  06F4                     i1l1554:
  3377                           
  3378                           ;Proyecto2.c: 114:                 bandera = 0;
  3379  06F4  01F8               	clrf	_bandera
  3380  06F5  2EF8               	goto	i1l137
  3381  06F6                     i1l140:	
  3382                           ;Proyecto2.c: 117:         else {
  3383                           
  3384                           
  3385                           ;Proyecto2.c: 118:             PORTBbits.RB6 = 0;
  3386  06F6  1306               	bcf	6,6	;volatile
  3387                           
  3388                           ;Proyecto2.c: 119:             PORTBbits.RB7 = 0;
  3389  06F7  1386               	bcf	6,7	;volatile
  3390  06F8                     i1l137:
  3391                           
  3392                           ;Proyecto2.c: 123:         INTCONbits.RBIF = 0;
  3393  06F8  100B               	bcf	11,0	;volatile
  3394  06F9                     i1l135:	
  3395                           ;Proyecto2.c: 124:     }
  3396                           
  3397                           
  3398                           ;Proyecto2.c: 126:     if (INTCONbits.T0IF ==1){
  3399  06F9  1D0B               	btfss	11,2	;volatile
  3400  06FA  2EFC               	goto	u87_21
  3401  06FB  2EFD               	goto	u87_20
  3402  06FC                     u87_21:
  3403  06FC  2F25               	goto	i1l148
  3404  06FD                     u87_20:
  3405  06FD                     i1l1556:
  3406                           
  3407                           ;Proyecto2.c: 127:         ciclo++;
  3408  06FD  3001               	movlw	1
  3409  06FE  1283               	bcf	3,5	;RP0=0, select bank0
  3410  06FF  1303               	bcf	3,6	;RP1=0, select bank0
  3411  0700  07AC               	addwf	_ciclo,f
  3412  0701  1803               	skipnc
  3413  0702  0AAD               	incf	_ciclo+1,f
  3414  0703  3000               	movlw	0
  3415  0704  07AD               	addwf	_ciclo+1,f
  3416                           
  3417                           ;Proyecto2.c: 128:         if (ciclo > motor) {
  3418  0705  082F               	movf	_motor+1,w
  3419  0706  3A80               	xorlw	128
  3420  0707  00F3               	movwf	??_ISR
  3421  0708  082D               	movf	_ciclo+1,w
  3422  0709  3A80               	xorlw	128
  3423  070A  0273               	subwf	??_ISR,w
  3424  070B  1D03               	skipz
  3425  070C  2F0F               	goto	u88_25
  3426  070D  082C               	movf	_ciclo,w
  3427  070E  022E               	subwf	_motor,w
  3428  070F                     u88_25:
  3429  070F  1803               	skipnc
  3430  0710  2F12               	goto	u88_21
  3431  0711  2F13               	goto	u88_20
  3432  0712                     u88_21:
  3433  0712  2F18               	goto	i1l145
  3434  0713                     u88_20:
  3435  0713                     i1l1558:
  3436                           
  3437                           ;Proyecto2.c: 129:             RD2 = 0;
  3438  0713  1283               	bcf	3,5	;RP0=0, select bank0
  3439  0714  1303               	bcf	3,6	;RP1=0, select bank0
  3440  0715  1108               	bcf	8,2	;volatile
  3441                           
  3442                           ;Proyecto2.c: 130:             RD3 = 0;
  3443  0716  1188               	bcf	8,3	;volatile
  3444                           
  3445                           ;Proyecto2.c: 132:         }
  3446  0717  2F1C               	goto	i1l1560
  3447  0718                     i1l145:	
  3448                           ;Proyecto2.c: 133:         else {
  3449                           
  3450                           
  3451                           ;Proyecto2.c: 134:             RD2 = 1;
  3452  0718  1283               	bcf	3,5	;RP0=0, select bank0
  3453  0719  1303               	bcf	3,6	;RP1=0, select bank0
  3454  071A  1508               	bsf	8,2	;volatile
  3455                           
  3456                           ;Proyecto2.c: 135:             RD3 =1;
  3457  071B  1588               	bsf	8,3	;volatile
  3458  071C                     i1l1560:
  3459                           
  3460                           ;Proyecto2.c: 139:         if (ciclo == 255)
  3461  071C  0A2C               	incf	_ciclo,w
  3462  071D  042D               	iorwf	_ciclo+1,w
  3463  071E  1D03               	btfss	3,2
  3464  071F  2F21               	goto	u89_21
  3465  0720  2F22               	goto	u89_20
  3466  0721                     u89_21:
  3467  0721  2F24               	goto	i1l1564
  3468  0722                     u89_20:
  3469  0722                     i1l1562:
  3470                           
  3471                           ;Proyecto2.c: 140:         {;Proyecto2.c: 141:             ciclo = 0;
  3472  0722  01AC               	clrf	_ciclo
  3473  0723  01AD               	clrf	_ciclo+1
  3474  0724                     i1l1564:
  3475                           
  3476                           ;Proyecto2.c: 143:         INTCONbits.T0IF = 0;
  3477  0724  110B               	bcf	11,2	;volatile
  3478  0725                     i1l148:
  3479  0725  0877               	movf	??_ISR+4,w
  3480  0726  008A               	movwf	10
  3481  0727  0E76               	swapf	??_ISR+3,w
  3482  0728  0083               	movwf	3
  3483  0729  0EFE               	swapf	btemp,f
  3484  072A  0E7E               	swapf	btemp,w
  3485  072B  0009               	retfie
  3486  072C                     __end_of_ISR:
  3487                           
  3488                           	psect	intentry
  3489  0004                     __pintentry:	
  3490                           ;incstack = 0
  3491                           ; Regs used in _ISR: [wreg+status,2+status,0+pclath+cstack]
  3492                           
  3493  0004                     interrupt_function:
  3494  007E                     saved_w	set	btemp
  3495  0004  00FE               	movwf	btemp
  3496  0005  0E03               	swapf	3,w
  3497  0006  00F6               	movwf	??_ISR+3
  3498  0007  080A               	movf	10,w
  3499  0008  00F7               	movwf	??_ISR+4
  3500  0009  120A  118A  2E11   	ljmp	_ISR
  3501                           
  3502                           	psect	text8
  3503  0FEF                     __ptext8:	
  3504 ;; *************** function i1_leer_EEP *****************
  3505 ;; Defined at:
  3506 ;;		line 171 in file "Proyecto2.c"
  3507 ;; Parameters:    Size  Location     Type
  3508 ;;  direc           1    wreg     unsigned char 
  3509 ;; Auto vars:     Size  Location     Type
  3510 ;;  direc           1    1[COMMON] unsigned char 
  3511 ;;  data            1    2[COMMON] unsigned char 
  3512 ;; Return value:  Size  Location     Type
  3513 ;;                  1    wreg      unsigned char 
  3514 ;; Registers used:
  3515 ;;		wreg
  3516 ;; Tracked objects:
  3517 ;;		On entry : 0/0
  3518 ;;		On exit  : 0/0
  3519 ;;		Unchanged: 0/0
  3520 ;; Data sizes:     COMMON   BANK0   BANK1   BANK3   BANK2
  3521 ;;      Params:         0       0       0       0       0
  3522 ;;      Locals:         2       0       0       0       0
  3523 ;;      Temps:          1       0       0       0       0
  3524 ;;      Totals:         3       0       0       0       0
  3525 ;;Total ram usage:        3 bytes
  3526 ;; Hardware stack levels used:    1
  3527 ;; This function calls:
  3528 ;;		Nothing
  3529 ;; This function is called by:
  3530 ;;		_ISR
  3531 ;; This function uses a non-reentrant model
  3532 ;;
  3533                           
  3534                           
  3535                           ;psect for function i1_leer_EEP
  3536  0FEF                     i1_leer_EEP:
  3537                           
  3538                           ;incstack = 0
  3539                           ; Regs used in i1_leer_EEP: [wreg]
  3540                           ;i1leer_EEP@direc stored from wreg
  3541  0FEF  00F1               	movwf	i1leer_EEP@direc
  3542  0FF0                     i1l1492:
  3543                           
  3544                           ;Proyecto2.c: 172:     EEADR = direc;
  3545  0FF0  0871               	movf	i1leer_EEP@direc,w
  3546  0FF1  1283               	bcf	3,5	;RP0=0, select bank2
  3547  0FF2  1703               	bsf	3,6	;RP1=1, select bank2
  3548  0FF3  008D               	movwf	13	;volatile
  3549  0FF4                     i1l1494:
  3550                           
  3551                           ;Proyecto2.c: 173:     EECON1bits.EEPGD = 0;
  3552  0FF4  1683               	bsf	3,5	;RP0=1, select bank3
  3553  0FF5  1703               	bsf	3,6	;RP1=1, select bank3
  3554  0FF6  138C               	bcf	12,7	;volsfr
  3555  0FF7                     i1l1496:
  3556                           
  3557                           ;Proyecto2.c: 174:     EECON1bits.RD = 1;
  3558  0FF7  140C               	bsf	12,0	;volsfr
  3559                           
  3560                           ;Proyecto2.c: 175:     char data = EEDAT;
  3561  0FF8  1283               	bcf	3,5	;RP0=0, select bank2
  3562  0FF9  1703               	bsf	3,6	;RP1=1, select bank2
  3563  0FFA  080C               	movf	12,w	;volatile
  3564  0FFB  00F0               	movwf	??i1_leer_EEP
  3565  0FFC  0870               	movf	??i1_leer_EEP,w
  3566  0FFD  00F2               	movwf	i1leer_EEP@data
  3567                           
  3568                           ;Proyecto2.c: 176:     return data;
  3569  0FFE  0872               	movf	i1leer_EEP@data,w
  3570  0FFF                     i1l157:
  3571  0FFF  0008               	return
  3572  1000                     __end_ofi1_leer_EEP:
  3573                           
  3574                           	psect	text9
  3575  07E2                     __ptext9:	
  3576 ;; *************** function i1_esc_EEP *****************
  3577 ;; Defined at:
  3578 ;;		line 147 in file "Proyecto2.c"
  3579 ;; Parameters:    Size  Location     Type
  3580 ;;  data            1    wreg     unsigned char 
  3581 ;;  direc           1    0[COMMON] unsigned char 
  3582 ;; Auto vars:     Size  Location     Type
  3583 ;;  data            1    1[COMMON] unsigned char 
  3584 ;; Return value:  Size  Location     Type
  3585 ;;                  1    wreg      void 
  3586 ;; Registers used:
  3587 ;;		wreg
  3588 ;; Tracked objects:
  3589 ;;		On entry : 0/0
  3590 ;;		On exit  : 0/0
  3591 ;;		Unchanged: 0/0
  3592 ;; Data sizes:     COMMON   BANK0   BANK1   BANK3   BANK2
  3593 ;;      Params:         1       0       0       0       0
  3594 ;;      Locals:         1       0       0       0       0
  3595 ;;      Temps:          0       0       0       0       0
  3596 ;;      Totals:         2       0       0       0       0
  3597 ;;Total ram usage:        2 bytes
  3598 ;; Hardware stack levels used:    1
  3599 ;; This function calls:
  3600 ;;		Nothing
  3601 ;; This function is called by:
  3602 ;;		_ISR
  3603 ;; This function uses a non-reentrant model
  3604 ;;
  3605                           
  3606                           
  3607                           ;psect for function i1_esc_EEP
  3608  07E2                     i1_esc_EEP:
  3609                           
  3610                           ;incstack = 0
  3611                           ; Regs used in i1_esc_EEP: [wreg]
  3612                           ;i1esc_EEP@data stored from wreg
  3613  07E2  00F1               	movwf	i1esc_EEP@data
  3614  07E3                     i1l1482:
  3615                           
  3616                           ;Proyecto2.c: 148:     EEADR = direc;
  3617  07E3  0870               	movf	i1esc_EEP@direc,w
  3618  07E4  1283               	bcf	3,5	;RP0=0, select bank2
  3619  07E5  1703               	bsf	3,6	;RP1=1, select bank2
  3620  07E6  008D               	movwf	13	;volatile
  3621                           
  3622                           ;Proyecto2.c: 149:     EEDAT = data;
  3623  07E7  0871               	movf	i1esc_EEP@data,w
  3624  07E8  008C               	movwf	12	;volatile
  3625  07E9                     i1l1484:
  3626                           
  3627                           ;Proyecto2.c: 151:     INTCONbits.GIE = 0;
  3628  07E9  138B               	bcf	11,7	;volatile
  3629  07EA                     i1l1486:
  3630                           
  3631                           ;Proyecto2.c: 153:     EECON1bits.EEPGD = 0;
  3632  07EA  1683               	bsf	3,5	;RP0=1, select bank3
  3633  07EB  1703               	bsf	3,6	;RP1=1, select bank3
  3634  07EC  138C               	bcf	12,7	;volsfr
  3635  07ED                     i1l1488:
  3636                           
  3637                           ;Proyecto2.c: 154:     EECON1bits.WREN = 1;
  3638  07ED  150C               	bsf	12,2	;volsfr
  3639                           
  3640                           ;Proyecto2.c: 156:     EECON2 = 0x55;
  3641  07EE  3055               	movlw	85
  3642  07EF  008D               	movwf	13	;volsfr
  3643                           
  3644                           ;Proyecto2.c: 157:     EECON2 = 0xAA;
  3645  07F0  30AA               	movlw	170
  3646  07F1  008D               	movwf	13	;volsfr
  3647  07F2                     i1l1490:
  3648                           
  3649                           ;Proyecto2.c: 159:     EECON1bits.WR = 1;
  3650  07F2  148C               	bsf	12,1	;volsfr
  3651  07F3                     i1l151:	
  3652                           ;Proyecto2.c: 161:     while(PIR2bits.EEIF == 0);
  3653                           
  3654  07F3  1283               	bcf	3,5	;RP0=0, select bank0
  3655  07F4  1303               	bcf	3,6	;RP1=0, select bank0
  3656  07F5  1E0D               	btfss	13,4	;volatile
  3657  07F6  2FF8               	goto	u75_21
  3658  07F7  2FF9               	goto	u75_20
  3659  07F8                     u75_21:
  3660  07F8  2FF3               	goto	i1l151
  3661  07F9                     u75_20:
  3662  07F9                     i1l153:
  3663                           
  3664                           ;Proyecto2.c: 162:     PIR2bits.EEIF = 0;
  3665  07F9  120D               	bcf	13,4	;volatile
  3666                           
  3667                           ;Proyecto2.c: 165:     EECON1bits.WREN = 0;
  3668  07FA  1683               	bsf	3,5	;RP0=1, select bank3
  3669  07FB  1703               	bsf	3,6	;RP1=1, select bank3
  3670  07FC  110C               	bcf	12,2	;volsfr
  3671  07FD                     i1l154:
  3672  07FD  0008               	return
  3673  07FE                     __end_ofi1_esc_EEP:
  3674  007E                     btemp	set	126	;btemp
  3675  007E                     wtemp0	set	126
  3676                           
  3677                           	psect	config
  3678                           
  3679                           ;Config register CONFIG1 @ 0x2007
  3680                           ;	Oscillator Selection bits
  3681                           ;	FOSC = INTRC_NOCLKOUT, INTOSCIO oscillator: I/O function on RA6/OSC2/CLKOUT pin, I/O f
      +                          unction on RA7/OSC1/CLKIN
  3682                           ;	Watchdog Timer Enable bit
  3683                           ;	WDTE = OFF, WDT disabled and can be enabled by SWDTEN bit of the WDTCON register
  3684                           ;	Power-up Timer Enable bit
  3685                           ;	PWRTE = ON, PWRT enabled
  3686                           ;	RE3/MCLR pin function select bit
  3687                           ;	MCLRE = OFF, RE3/MCLR pin function is digital input, MCLR internally tied to VDD
  3688                           ;	Code Protection bit
  3689                           ;	CP = OFF, Program memory code protection is disabled
  3690                           ;	Data Code Protection bit
  3691                           ;	CPD = OFF, Data memory code protection is disabled
  3692                           ;	Brown Out Reset Selection bits
  3693                           ;	BOREN = OFF, BOR disabled
  3694                           ;	Internal External Switchover bit
  3695                           ;	IESO = OFF, Internal/External Switchover mode is disabled
  3696                           ;	Fail-Safe Clock Monitor Enabled bit
  3697                           ;	FCMEN = OFF, Fail-Safe Clock Monitor is disabled
  3698                           ;	Low Voltage Programming Enable bit
  3699                           ;	LVP = OFF, RB3 pin has digital I/O, HV on MCLR must be used for programming
  3700                           ;	In-Circuit Debugger Mode bit
  3701                           ;	DEBUG = 0x1, unprogrammed default
  3702  2007                     	org	8199
  3703  2007  20C4               	dw	8388
  3704                           
  3705                           ;Config register CONFIG2 @ 0x2008
  3706                           ;	Brown-out Reset Selection bit
  3707                           ;	BOR4V = BOR40V, Brown-out Reset set to 4.0V
  3708                           ;	Flash Program Memory Self Write Enable bits
  3709                           ;	WRT = OFF, Write protection off
  3710  2008                     	org	8200
  3711  2008  3FFF               	dw	16383

Data Sizes:
    Strings     529
    Constant    0
    Data        0
    BSS         12
    Persistent  0
    Stack       0

Auto Spaces:
    Space          Size  Autos    Used
    COMMON           14      8      14
    BANK0            80     12      18
    BANK1            80      0       0
    BANK3            96      0       0
    BANK2            96      0       0

Pointer List with Targets:

    printf@f	PTR const unsigned char  size(2) Largest target is 50
		 -> STR_24(CODE[28]), STR_23(CODE[11]), STR_22(CODE[13]), STR_21(CODE[40]), 
		 -> STR_20(CODE[19]), STR_19(CODE[18]), STR_18(CODE[22]), STR_17(CODE[50]), 
		 -> STR_16(CODE[13]), STR_15(CODE[12]), STR_14(CODE[13]), STR_13(CODE[38]), 
		 -> STR_12(CODE[13]), STR_11(CODE[16]), STR_10(CODE[14]), STR_9(CODE[42]), 
		 -> STR_8(CODE[15]), STR_7(CODE[19]), STR_6(CODE[19]), STR_5(CODE[29]), 
		 -> STR_4(CODE[19]), STR_3(CODE[30]), STR_2(CODE[18]), STR_1(CODE[31]), 

    printf@ap	PTR void [1] size(1) Largest target is 2
		 -> ?_printf(BANK0[2]), 


Critical Paths under _main in COMMON

    None.

Critical Paths under _ISR in COMMON

    _ISR->i1_leer_EEP

Critical Paths under _main in BANK0

    _main->_comunicacioneu
    _comunicacioneu->_printf
    _printf->_putch

Critical Paths under _ISR in BANK0

    None.

Critical Paths under _main in BANK1

    None.

Critical Paths under _ISR in BANK1

    None.

Critical Paths under _main in BANK3

    None.

Critical Paths under _ISR in BANK3

    None.

Critical Paths under _main in BANK2

    None.

Critical Paths under _ISR in BANK2

    None.

Call Graph Tables:

 ---------------------------------------------------------------------------------
 (Depth) Function   	        Calls       Base Space   Used Autos Params    Refs
 ---------------------------------------------------------------------------------
 (0) _main                                                 1     1      0    2233
                                             11 BANK0      1     1      0
                     _comunicacioneu
                              _confi
 ---------------------------------------------------------------------------------
 (1) _confi                                                1     1      0       0
                                              0 BANK0      1     1      0
 ---------------------------------------------------------------------------------
 (1) _comunicacioneu                                       3     3      0    2233
                                              8 BANK0      3     3      0
                            _esc_EEP
                           _leer_EEP
                             _printf
 ---------------------------------------------------------------------------------
 (2) _printf                                              19    17      2    1892
                                              1 BANK0      7     5      2
                              _putch
 ---------------------------------------------------------------------------------
 (3) _putch                                                1     1      0      22
                                              0 BANK0      1     1      0
 ---------------------------------------------------------------------------------
 (2) _leer_EEP                                             3     3      0      45
                                              0 BANK0      3     3      0
 ---------------------------------------------------------------------------------
 (2) _esc_EEP                                              2     1      1     296
                                              0 BANK0      2     1      1
 ---------------------------------------------------------------------------------
 Estimated maximum stack depth 3
 ---------------------------------------------------------------------------------
 (Depth) Function   	        Calls       Base Space   Used Autos Params    Refs
 ---------------------------------------------------------------------------------
 (4) _ISR                                                  5     5      0     141
                                              3 COMMON     5     5      0
                          i1_esc_EEP
                         i1_leer_EEP
 ---------------------------------------------------------------------------------
 (5) i1_leer_EEP                                           3     3      0      45
                                              0 COMMON     3     3      0
 ---------------------------------------------------------------------------------
 (5) i1_esc_EEP                                            2     1      1      96
                                              0 COMMON     2     1      1
 ---------------------------------------------------------------------------------
 Estimated maximum stack depth 5
 ---------------------------------------------------------------------------------

 Call Graph Graphs:

 _main (ROOT)
   _comunicacioneu
     _esc_EEP
     _leer_EEP
     _printf
       _putch
   _confi

 _ISR (ROOT)
   i1_esc_EEP
   i1_leer_EEP

 Address spaces:
Name               Size   Autos  Total    Cost      Usage
BITCOMMON            E      0       0       0        0.0%
EEDATA             100      0       0       0        0.0%
NULL                 0      0       0       0        0.0%
CODE                 0      0       0       0        0.0%
COMMON               E      8       E       1      100.0%
BITSFR0              0      0       0       1        0.0%
SFR0                 0      0       0       1        0.0%
BITSFR1              0      0       0       2        0.0%
SFR1                 0      0       0       2        0.0%
STACK                0      0       0       2        0.0%
ABS                  0      0      20       3        0.0%
BITBANK0            50      0       0       4        0.0%
BITSFR3              0      0       0       4        0.0%
SFR3                 0      0       0       4        0.0%
BANK0               50      C      12       5       22.5%
BITSFR2              0      0       0       5        0.0%
SFR2                 0      0       0       5        0.0%
BITBANK1            50      0       0       6        0.0%
BANK1               50      0       0       7        0.0%
BITBANK3            60      0       0       8        0.0%
BANK3               60      0       0       9        0.0%
BITBANK2            60      0       0      10        0.0%
BANK2               60      0       0      11        0.0%
DATA                 0      0      20      12        0.0%


Microchip Technology PIC Macro Assembler V2.31 build 20201012212115 
Symbol Table                                                                                   Fri Jun 04 10:42:04 2021

                      pc 0002                       fsr 0004                      l205 01D3  
                    l151 03C7                      l215 0253                      l153 03CD  
                    l209 01F4                      l154 03D1                      l226 02CC  
                    l219 0278                      l236 0362                      l157 03E6  
                    l181 0FE8                      l191 00EE                      l175 078D  
                    l184 0FEE                      l328 07E1                      l177 0791  
                    l178 07B9                      l195 0153                      l187 0089  
                    l199 0174                      _RD2 0042                      _RD3 0043  
                    u500 07E1                      u501 07E0                      u510 0791  
                    _PR2 0092                      u511 0790                      u600 017A  
                    u520 008F                      u601 0179                      u521 008E  
                    u610 01D9                      u530 0095                      u611 01D8  
                    u531 0094                      u700 027F                      u620 01DF  
                    u540 00F4                      _ISR 0611                      u701 027E  
                    u621 01DE                      u541 00F3                      u710 02D2  
                    u630 01E8                      u550 00FA                      u711 02D1  
                    u631 01E7                      u551 00F9                      u480 0FEC  
                    u720 02D8                      u640 01F1                      u560 0159  
                    u481 0FEB                      u721 02D7                      u641 01F0  
                    u561 0158                      u490 03CD                      u730 0307  
                    u650 01FA                      u570 015F                      u491 03CC  
                    u731 0306                      u651 01F9                      u571 015E  
                    u740 0345                      u660 0259                      u580 0168  
                    u900 0370                      u741 0344                      u661 0258  
                    u581 0167                      u901 036F                      u670 025F  
                    u590 0171                      u910 037B                      u671 025E  
                    u591 0170                      u911 037A                      u680 026A  
                    u920 0384                      u681 0269                      u921 0383  
                    u690 0273                      u930 0392                      u691 0272  
                    u931 0391                      u940 03A0                      u941 039F  
                    u957 03A6                      u967 0756                      u977 0760  
                    u987 0029                      u997 0043                      _sm1 007D  
                    _sm2 007C                      fsr0 0004                      indf 0000  
             i1_leer_EEP 0FEF                     ?_ISR 0070                     l1300 077B  
                   l1230 03B3                     l1222 03D5                     l1310 0785  
                   l1302 077C                     l1232 03BD                     l1224 03D9  
                   l1216 0FE8                     l1240 07BA                     l1400 01E2  
                   l1320 07B1                     l1312 0789                     l1304 077D  
                   l1234 03BE                     l1226 03DC                     l1218 0FEC  
                   l1242 07C1                     l1410 01FA                     l1402 01E8  
                   l1330 0021                     l1322 07B4                     l1314 078C  
                   l1306 0780                     l1250 0731                     l1236 03C1  
                   l1244 07C7                     l1420 0239                     l1412 01FA  
                   l1404 01EB                     l1340 007E                     l1332 0030  
                   l1324 07B5                     l1316 07AC                     l1308 0781  
                   l1260 073F                     l1252 0736                     l1238 03C6  
                   l1430 026D                     l1422 0259                     l1414 0205  
                   l1406 01F1                     l1350 00AF                     l1342 008F  
                   l1334 003B                     l1326 07B6                     l1318 07B0  
                   l1270 0746                     l1262 0740                     l1254 0738  
                   l1246 072C                     l1440 0298                     l1432 0273  
                   l1424 025F                     l1416 0214                     l1408 01F4  
                   l1360 00FA                     l1352 00C9                     l1344 0095  
                   l1336 0055                     l1280 0750                     l1272 0747  
                   l1264 0741                     l1256 073A                     l1248 0730  
                   l1450 02D9                     l1442 02B2                     l1426 0264  
                   l1418 022E                     l1370 0159                     l1362 0105  
                   l1354 00D4                     l1346 0095                     l1434 0279  
                   l1338 0064                     l1290 076D                     l1282 0759  
                   l1274 0748                     l1266 0744                     l1258 073C  
                   l1460 0309                     l1452 02EF                     l1444 02C1  
                   l1436 027F                     l1428 026A                     l1380 0171  
                   l1372 015F                     l1364 0114                     l1356 00F4  
                   l1348 00A0                     l1292 0771                     l1284 0763  
                   l1276 0749                     l1268 0745                     l1470 033D  
                   l1462 031F                     l1454 02FD                     l1446 02D2  
                   l1438 028D                     l1390 0194                     l1374 0162  
                   l1366 012E                     l1358 00FA                     l1382 0174  
                   l1294 0775                     l1286 0766                     l1278 074A  
                   l1480 035F                     l1464 0325                     l1448 02D8  
                   l1456 0301                     l1472 033F                     l1392 01AE  
                   l1384 017A                     l1376 0168                     l1368 0139  
                   l1296 0777                     l1288 0769                     l1474 0345  
                   l1466 032B                     l1458 0307                     l1394 01B9  
                   l1386 017A                     l1378 016B                     l1298 0779  
                   l1570 0368                     l1476 0353                     l1468 033A  
                   l1396 01D9                     l1388 0185                     l1580 0384  
                   l1572 036B                     l1478 035E                     l1398 01DF  
                   l1590 03A2                     l1582 0389                     l1574 0370  
                   l1592 03A9                     l1584 0392                     l1576 0375  
                   l1568 0363                     l1586 0397                     l1578 037B  
                   l1588 03A0                     STR_1 04AA                     STR_2 0582  
                   STR_3 04C9                     STR_4 0536                     STR_5 04E7  
                   STR_6 055C                     STR_7 056F                     STR_8 05B6  
                   STR_9 0432                     u1007 005D                     u1017 0077  
                   u1107 01C1                     u1027 00A8                     u1117 020D  
                   u1037 00C2                     u1127 0227                     u1047 00DC  
                   u1137 0241                     u1057 010D                     u1147 0287  
                   u1067 0127                     _IOCB 0096                     u1157 02A0  
                   u1077 0141                     u1167 02BA                     u1087 018D  
                   u1177 02F7                     u1097 01A7                     u1187 0333  
                   u1197 034D                     _RBIF 0058                     _RCIF 0065  
                   _TMR0 0001                     _TXIF 0064                     _WPUB 0095  
                   _lec1 007A                     _lec2 0079                     _lec3 0030  
                   _data 007B                     _main 0363                     btemp 007E  
                   start 000C                    ??_ISR 0073                    ?_main 0070  
                  _EEADR 010D                    STR_10 05C5                    _EEDAT 010C  
                  STR_11 05A6                    STR_12 05E0                    STR_20 0549  
                  STR_13 0484                    STR_21 045C                    STR_22 05ED  
                  STR_14 05D3                    STR_23 0606                    STR_15 05FA  
                  STR_16 05E0                    STR_24 0504                    STR_17 0400  
                  STR_18 0520                    STR_19 0594                    _ANSEL 0188  
                  i1l140 06F6                    i1l141 06F3                    i1l151 07F3  
                  i1l135 06F9                    i1l136 06BF                    i1l153 07F9  
                  i1l145 0718                    i1l137 06F8                    i1l154 07FD  
                  i1l138 06E6                    i1l148 0725                    i1l157 0FFF  
                  _RCREG 001A                    _SPBRG 0099                    _PORTA 0005  
                  _PORTB 0006                    _PORTD 0008                    u80_25 0665  
                  u81_20 067C                    u81_21 067B                    _TRISA 0085  
                  _TRISB 0086                    _TRISD 0088                    u82_20 0688  
                  u82_21 0687                    u75_20 07F9                    u83_20 068C  
                  u75_21 07F8                    u83_21 068B                    u84_20 06C3  
                  u76_20 0617                    u84_21 06C2                    u76_21 0616  
                  u85_20 06EA                    u77_20 0620                    u85_21 06E9  
                  u77_21 061F                    u86_20 06EF                    u86_21 06EE  
                  u78_25 0637                    u87_20 06FD                    u79_20 064E  
                  u87_21 06FC                    u79_21 064D                    u88_20 0713  
                  u88_21 0712                    u88_25 070F                    u89_20 0722  
                  u89_21 0721                    _TXREG 0019          __end_of_esc_EEP 03D2  
                  _ciclo 002C                    _direc 0031                    _confi 072C  
                  _motor 002E                    _putch 0FE5                    pclath 000A  
           leer_EEP@data 0022                    status 0003           _comunicacioneu 0021  
                  wtemp0 007E       __size_ofi1_esc_EEP 001C          __initialization 000F  
           __end_of_main 03B0                   ??_main 002B              ?i1_leer_EEP 0070  
                 ?_confi 0070                   _ADRESH 001E                   _CCPR1L 0015  
                 _CCPR2L 001B                   _EECON2 018D                   ?_putch 0070  
                 _ANSELH 0189   __end_of_comunicacioneu 0363                   i1l1500 0611  
                 i1l1510 0634                   i1l1502 0617                   i1l1520 0662  
                 i1l1504 0620                   i1l1512 0645                   i1l1530 0688  
                 i1l1514 064E                   i1l1522 0673                   i1l1506 0624  
                 i1l1540 06AE                   i1l1532 068C                   i1l1524 067C  
                 i1l1516 0652                   i1l1508 062A                   i1l1550 06EA  
                 i1l1542 06BB                   i1l1534 068E                   i1l1518 0658  
                 i1l1526 0683                   u120_27 06B4                   i1l1560 071C  
                 i1l1552 06EF                   i1l1544 06C3                   i1l1536 06A0  
                 i1l1528 0684                   i1l1490 07F2                   i1l1482 07E3  
                 i1l1562 0722                   i1l1554 06F4                   i1l1546 06C4  
                 i1l1538 06A8                   i1l1484 07E9                   i1l1492 0FF0  
                 i1l1564 0724                   i1l1556 06FD                   i1l1548 06D8  
                 i1l1486 07EA                   i1l1494 0FF4                   i1l1558 0713  
                 u121_27 06DE                   i1l1488 07ED                   i1l1496 0FF7  
                 _SPBRGH 009A           i1leer_EEP@data 0072         __end_of_leer_EEP 03E7  
              ??_esc_EEP 0021                   _printf 07BA            leer_EEP@direc 0021  
                 saved_w 007E        __end_ofi1_esc_EEP 07FE          ?_comunicacioneu 0070  
__end_of__initialization 001D           __pcstackCOMMON 0070      __size_ofi1_leer_EEP 0011  
          __end_of_confi 07BA            __end_of_putch 0FEF           _OPTION_REGbits 0081  
                ??_confi 0020                  ??_putch 0020               __pbssBANK0 002C  
             __pmaintext 0363               __pintentry 0004                  ?_printf 0021  
        i1leer_EEP@direc 0071                ?_leer_EEP 0070               __stringtab 03E7  
                _bandera 0078                  _esc_EEP 03B0                  __ptext1 072C  
                __ptext2 0021                  __ptext3 07BA                  __ptext4 0FE5  
                __ptext5 03D2                  __ptext6 03B0                  __ptext7 0611  
                __ptext8 0FEF                  __ptext9 07E2          __size_of_printf 0028  
           __size_of_ISR 011B                _T2CONbits 0012             ??i1_leer_EEP 0070  
             ??_leer_EEP 0020     end_of_initialization 001D            i1esc_EEP@data 0071  
              _RCSTAbits 0018                  printf@c 0027                  printf@f 0021  
                putch@dt 0020             __pstringtext 0400       __end_ofi1_leer_EEP 1000  
              _PORTBbits 0006         ??_comunicacioneu 0028                _TRISCbits 0087  
              i1_esc_EEP 07E2              _CCP1CONbits 0017              _CCP2CONbits 001D  
              _TXSTAbits 0098              _BAUDCTLbits 0187           __end_of_printf 07E2  
    start_initialization 000F              __end_of_ISR 072C               ?i1_esc_EEP 0070  
               ??_printf 0023              __pbssCOMMON 0078                ___latbits 0002  
          __pcstackBANK0 0020        __size_of_leer_EEP 0015                 ?_esc_EEP 0020  
              __pstrings 03E7           __size_of_confi 008E           __size_of_putch 000A  
            ??i1_esc_EEP 0071        interrupt_function 0004                 _IOCBbits 0096  
               _PIE1bits 008C                 _PIR1bits 000C                 _PIR2bits 000D  
             _ADCON0bits 001F              __stringbase 03F9               _ADCON1bits 009F  
               _WPUBbits 0095               _EECON1bits 018C       __end_of__stringtab 03F9  
       __size_of_esc_EEP 0022             esc_EEP@direc 0020                 _leer_EEP 03D2  
          __size_of_main 004D               _INTCONbits 000B           i1esc_EEP@direc 0070  
            esc_EEP@data 0021                 intlevel1 0000  __size_of_comunicacioneu 0342  
              stringcode 03F1               _OSCCONbits 008F                 printf@ap 0026  
               stringtab 03E7  
